(lp0
(dp1
S'src'
p2
Vhttps://scontent-b.xx.fbcdn.net/hphotos-xap1/v/t1.0-9/p720x720/10897058_844354132273708_8867411476312079105_n.jpg?oh=e8b77bb129aff9353736d1a2153aa860&oe=55966325
p3
sS'name'
p4
V10897058_844354132273708_8867411476312079105_n.jpg?oh=e8b77bb129aff9353736d1a2153aa860&oe=55966325
p5
sa(dp6
g2
Vhttps://scontent-b.xx.fbcdn.net/hphotos-xpa1/t31.0-8/s720x720/1417682_791130954262693_5252101540072759073_o.jpg
p7
sg4
VOk Glass Take a picture.jpg
p8
sa(dp9
g2
Vhttps://fbcdn-sphotos-f-a.akamaihd.net/hphotos-ak-xfp1/t31.0-8/s720x720/10551700_753538371355285_950070878350198803_o.jpg
p10
sg4
V10551700_753538371355285_950070878350198803_o.jpg
p11
sa(dp12
g2
Vhttps://scontent-a.xx.fbcdn.net/hphotos-xpa1/t31.0-8/s720x720/1557260_670942202948236_1015785073_o.jpg
p13
sg4
VPic Credits Vamshi R Kasula.jpg
p14
sa(dp15
g2
Vhttps://scontent-a.xx.fbcdn.net/hphotos-xfp1/v/t1.0-9/s720x720/1016273_660692077306582_817506600_n.jpg?oh=fe218915c8d208dfcb2f96b98a861203&oe=55944724
p16
sg4
V1016273_660692077306582_817506600_n.jpg?oh=fe218915c8d208dfcb2f96b98a861203&oe=55944724
p17
sa(dp18
g2
Vhttps://fbcdn-sphotos-h-a.akamaihd.net/hphotos-ak-xpa1/v/t1.0-9/1623589_660691863973270_2012457492_n.jpg?oh=f1270ee21855b92488db7ea65d3d535e&oe=5549CD55&__gda__=1431896497_aa74bf9b2753068ec5a8aae61b30d210
p19
sg4
V1623589_660691863973270_2012457492_n.jpg?oh=f1270ee21855b92488db7ea65d3d535e&oe=5549CD55&__gda__=1431896497_aa74bf9b2753068ec5a8aae61b30d210
p20
sa(dp21
g2
Vhttps://scontent-a.xx.fbcdn.net/hphotos-xpa1/t31.0-8/s720x720/1618255_660695543972902_1604774391_o.jpg
p22
sg4
VDo you remember this Drsridharreddy Erugula and Sandhya Sabbella.jpg
p23
sa(dp24
g2
Vhttps://fbcdn-sphotos-b-a.akamaihd.net/hphotos-ak-xpf1/t31.0-8/s720x720/1495209_645433902165733_1162261799_o.jpg
p25
sg4
V1495209_645433902165733_1162261799_o.jpg
p26
sa(dp27
g2
Vhttps://scontent-a.xx.fbcdn.net/hphotos-xaf1/v/t1.0-9/s720x720/401216_537698262939298_1945094142_n.jpg?oh=66253af723aca041af317c6334d0461a&oe=5596517B
p28
sg4
V401216_537698262939298_1945094142_n.jpg?oh=66253af723aca041af317c6334d0461a&oe=5596517B
p29
sa(dp30
g2
Vhttps://fbcdn-sphotos-e-a.akamaihd.net/hphotos-ak-xaf1/v/t1.0-9/p720x720/482967_499133170129141_838018394_n.jpg?oh=1f7beb386c1da10995426f57e4e5877a&oe=5563C94E&__gda__=1435656977_ff8d820803c35b2143d289358857e07b
p31
sg4
V482967_499133170129141_838018394_n.jpg?oh=1f7beb386c1da10995426f57e4e5877a&oe=5563C94E&__gda__=1435656977_ff8d820803c35b2143d289358857e07b
p32
sa(dp33
g2
Vhttps://scontent-a.xx.fbcdn.net/hphotos-xfp1/t31.0-8/r270/p180x540/778789_499130270129431_2108130171_o.jpg
p34
sg4
V778789_499130270129431_2108130171_o.jpg
p35
sa(dp36
g2
Vhttps://fbcdn-sphotos-e-a.akamaihd.net/hphotos-ak-xaf1/t31.0-8/p180x540/413780_482626431779815_1930149593_o.jpg
p37
sg4
VUnforgettable moments3 u all.jpg
p38
sa(dp39
g2
Vhttps://fbcdn-sphotos-h-a.akamaihd.net/hphotos-ak-xfa1/t31.0-8/s720x720/323669_440603699315422_237246547_o.jpg
p40
sg4
V323669_440603699315422_237246547_o.jpg
p41
sa(dp42
g2
Vhttps://scontent-b.xx.fbcdn.net/hphotos-xfa1/v/t1.0-9/551614_436482956394163_507800952_n.jpg?oh=28a4e03e160063b3bc6e679d982b6dc6&oe=5592EAE1
p43
sg4
VRahul Gottipati vs ChiranjeeviEAE1
p44
sa(dp45
g2
Vhttps://fbcdn-sphotos-h-a.akamaihd.net/hphotos-ak-xfa1/v/t1.0-9/395869_430783453630780_448050568_n.jpg?oh=4deef64855879ed0f16c99cf7969ba34&oe=55564D08&__gda__=1431106486_a3a776437f54dae3746fdae50220b8c0
p46
sg4
V395869_430783453630780_448050568_n.jpg?oh=4deef64855879ed0f16c99cf7969ba34&oe=55564D08&__gda__=1431106486_a3a776437f54dae3746fdae50220b8c0
p47
sa(dp48
g2
Vhttps://fbcdn-sphotos-e-a.akamaihd.net/hphotos-ak-frc3/t31.0-8/s720x720/620428_430783173630808_738056787_o.jpg
p49
sg4
V620428_430783173630808_738056787_o.jpg
p50
sa(dp51
g2
Vhttps://fbcdn-sphotos-f-a.akamaihd.net/hphotos-ak-xfa1/v/t1.0-9/384615_430563646986094_1517469091_n.jpg?oh=47398061ce302aa1445e4a217f53f11b&oe=55581309&__gda__=1431471232_028653cc17aface723e5e6eafda89ef8
p52
sg4
VHappy Friendship Day9ef8
p53
sa(dp54
g2
Vhttps://fbcdn-sphotos-g-a.akamaihd.net/hphotos-ak-xaf1/t31.0-8/s720x720/471143_424085967633862_1720820069_o.jpg
p55
sg4
VMy New LappyD.jpg
p56
sa(dp57
g2
Vhttps://scontent-b.xx.fbcdn.net/hphotos-xfa1/v/t1.0-9/250895_414647435244382_1033587317_n.jpg?oh=4c911c95d9de85398efa7b8e1452306b&oe=555335D8
p58
sg4
V250895_414647435244382_1033587317_n.jpg?oh=4c911c95d9de85398efa7b8e1452306b&oe=555335D8
p59
sa(dp60
g2
Vhttps://fbcdn-sphotos-f-a.akamaihd.net/hphotos-ak-prn2/v/t1.0-9/553810_414639535245172_1867665945_n.jpg?oh=eb742b5695e5f11bf3227d0edb4b9a58&oe=554D557C&__gda__=1430981930_b695814c788b92b632c3019f5d761833
p61
sg4
V553810_414639535245172_1867665945_n.jpg?oh=eb742b5695e5f11bf3227d0edb4b9a58&oe=554D557C&__gda__=1430981930_b695814c788b92b632c3019f5d761833
p62
sa(dp63
g2
Vhttps://fbcdn-sphotos-c-a.akamaihd.net/hphotos-ak-xfp1/t31.0-8/p180x540/414741_369057699803356_1584287287_o.jpg
p64
sg4
V414741_369057699803356_1584287287_o.jpg
p65
sa(dp66
g2
Vhttps://scontent-a.xx.fbcdn.net/hphotos-xaf1/v/t1.0-9/579110_368502373192222_6167939_n.jpg?oh=d0bf899fc3bbe3c12be20e6b3fc69994&oe=55933625
p67
sg4
V579110_368502373192222_6167939_n.jpg?oh=d0bf899fc3bbe3c12be20e6b3fc69994&oe=55933625
p68
sa(dp69
g2
Vhttps://fbcdn-sphotos-a-a.akamaihd.net/hphotos-ak-xaf1/v/t1.0-9/543266_358318687543924_808781490_n.jpg?oh=8ec5e1b8cee9dd173a01b3f15359da13&oe=55965EA3&__gda__=1433022322_6ee8ccc4b6b0680c62cd12c622f4cc2b
p70
sg4
V543266_358318687543924_808781490_n.jpg?oh=8ec5e1b8cee9dd173a01b3f15359da13&oe=55965EA3&__gda__=1433022322_6ee8ccc4b6b0680c62cd12c622f4cc2b
p71
sa(dp72
g2
Vhttps://scontent-b.xx.fbcdn.net/hphotos-xfa1/v/t1.0-9/485221_350758844966575_2138704799_n.jpg?oh=7f30d2a8877b8a18af340cd1f8b0d769&oe=555B4E45
p73
sg4
VFind out what your birthdate tells about you at httpwwwexootlabcomgobirthdate4E45
p74
sa(dp75
g2
Vhttps://fbcdn-sphotos-d-a.akamaihd.net/hphotos-ak-xfa1/t31.0-8/s720x720/415548_309848215724305_843265688_o.jpg
p76
sg4
V415548_309848215724305_843265688_o.jpg
p77
sa(dp78
g2
Vhttps://fbcdn-sphotos-d-a.akamaihd.net/hphotos-ak-xfa1/v/t1.0-9/302213_258155697560224_1003689017_n.jpg?oh=f9093206d87c4354d6d570cd8e461043&oe=55696FDE&__gda__=1432484951_7b4eaa49f0cee7112fab1217e69cc728
p79
sg4
V302213_258155697560224_1003689017_n.jpg?oh=f9093206d87c4354d6d570cd8e461043&oe=55696FDE&__gda__=1432484951_7b4eaa49f0cee7112fab1217e69cc728
p80
sa(dp81
g2
Vhttps://fbcdn-sphotos-d-a.akamaihd.net/hphotos-ak-xfa1/t31.0-8/s720x720/331788_256813747694419_1883220864_o.jpg
p82
sg4
V331788_256813747694419_1883220864_o.jpg
p83
sa(dp84
g2
Vhttps://fbcdn-sphotos-c-a.akamaihd.net/hphotos-ak-xfp1/v/t1.0-9/297180_243107512398376_4595450_n.jpg?oh=7410b6669fdbdd98662b0f0ae79d9e93&oe=555101ED&__gda__=1432468667_793ffc6276c34c346d67a7f371534db1
p85
sg4
V297180_243107512398376_4595450_n.jpg?oh=7410b6669fdbdd98662b0f0ae79d9e93&oe=555101ED&__gda__=1432468667_793ffc6276c34c346d67a7f371534db1
p86
sa(dp87
g2
Vhttps://fbcdn-sphotos-h-a.akamaihd.net/hphotos-ak-xfa1/v/t1.0-9/295344_233876176654843_2953417_n.jpg?oh=76030d1e5412a7b1f013c478940e16e6&oe=555419BB&__gda__=1432128627_3d4f663293d36e78512728511ac2ad84
p88
sg4
V295344_233876176654843_2953417_n.jpg?oh=76030d1e5412a7b1f013c478940e16e6&oe=555419BB&__gda__=1432128627_3d4f663293d36e78512728511ac2ad84
p89
sa(dp90
g2
Vhttps://scontent-b.xx.fbcdn.net/hphotos-xpf1/v/t1.0-9/283397_221944657847995_340436_n.jpg?oh=41afcd2ee6981d599d18d77cd14ddf44&oe=5552FF38
p91
sg4
V283397_221944657847995_340436_n.jpg?oh=41afcd2ee6981d599d18d77cd14ddf44&oe=5552FF38
p92
sa(dp93
g2
Vhttps://fbcdn-sphotos-d-a.akamaihd.net/hphotos-ak-xpf1/v/t1.0-9/283471_219717848070676_3965484_n.jpg?oh=823426b3aa70ad5a08d1cf0a349decd0&oe=555D6FA7&__gda__=1431804654_18808db66a20f6702338167f6eeb58b3
p94
sg4
V283471_219717848070676_3965484_n.jpg?oh=823426b3aa70ad5a08d1cf0a349decd0&oe=555D6FA7&__gda__=1431804654_18808db66a20f6702338167f6eeb58b3
p95
sa(dp96
g2
Vhttps://scontent-b.xx.fbcdn.net/hphotos-xfa1/v/t1.0-9/253030_204609592914835_4542396_n.jpg?oh=8df3f39e5727540d80c3f0242ac376a7&oe=55938127
p97
sg4
V253030_204609592914835_4542396_n.jpg?oh=8df3f39e5727540d80c3f0242ac376a7&oe=55938127
p98
sa(dp99
g2
Vhttps://fbcdn-sphotos-d-a.akamaihd.net/hphotos-ak-xpf1/v/t1.0-9/246700_204607486248379_4192430_n.jpg?oh=2e1b3a1e71c4abfe09058975d54eb31b&oe=55939ED4&__gda__=1432323741_bd1bcc67af6fde43af4d1e9df2d7c182
p100
sg4
V246700_204607486248379_4192430_n.jpg?oh=2e1b3a1e71c4abfe09058975d54eb31b&oe=55939ED4&__gda__=1432323741_bd1bcc67af6fde43af4d1e9df2d7c182
p101
sa(dp102
g2
Vhttps://fbcdn-sphotos-b-a.akamaihd.net/hphotos-ak-xfa1/v/t1.0-9/250737_202594989782962_2010518_n.jpg?oh=a533679c5bc8e1ed9609c379c8c27e3b&oe=55933193&__gda__=1432810075_7f5a2a65c3d8c84e4269abca663fec64
p103
sg4
V250737_202594989782962_2010518_n.jpg?oh=a533679c5bc8e1ed9609c379c8c27e3b&oe=55933193&__gda__=1432810075_7f5a2a65c3d8c84e4269abca663fec64
p104
sa(dp105
g2
Vhttps://fbcdn-sphotos-c-a.akamaihd.net/hphotos-ak-xaf1/v/t1.0-9/183306_183015278407600_30346_n.jpg?oh=d8117c75f63ba668fee1673dccc872cc&oe=556A0B99&__gda__=1432400304_ab39ee95b8d3e23c9b4d0d5e5b791da0
p106
sg4
V183306_183015278407600_30346_n.jpg?oh=d8117c75f63ba668fee1673dccc872cc&oe=556A0B99&__gda__=1432400304_ab39ee95b8d3e23c9b4d0d5e5b791da0
p107
sa(dp108
g2
Vhttps://fbcdn-sphotos-a-a.akamaihd.net/hphotos-ak-xpf1/v/t1.0-9/23688_100596769982785_634810_n.jpg?oh=cec579955587790853aafd203c4934e0&oe=554A149F&__gda__=1431701958_c1949c9085a53b890d303598d59a4056
p109
sg4
V23688_100596769982785_634810_n.jpg?oh=cec579955587790853aafd203c4934e0&oe=554A149F&__gda__=1431701958_c1949c9085a53b890d303598d59a4056
p110
sa.