(lp0
(dp1
S'src'
p2
Vhttps://fbcdn-sphotos-h-a.akamaihd.net/hphotos-ak-xfp1/v/t1.0-9/s720x720/984201_10152854224816055_2890977203778266153_n.jpg?oh=72b084d20ad9b87febd07c9f9d9ce293&oe=5592374D&__gda__=1431902077_4ea27150f332459a48902f82d1261570
p3
sS'name'
p4
VHey CMU friends -If you or someone you know is interested in educational technologythe CMU EdTec1570
p5
sa(dp6
g2
Vhttps://fbcdn-sphotos-g-a.akamaihd.net/hphotos-ak-xaf1/v/t1.0-9/10639409_10152847583906055_3813129048669436064_n.jpg?oh=828c48fdb513f716a257406f048f9046&oe=554FFEDF&__gda__=1435946859_63eb9f27432b046f71524b4b71af545e
p7
sg4
VOwl City himself liked my summer music video honoredTweet httpstwittercompunsfrommylifes545e
p8
sa(dp9
g2
Vhttps://fbcdn-sphotos-e-a.akamaihd.net/hphotos-ak-xpa1/v/t1.0-9/p720x720/10389282_10152758552951055_4708490459303507280_n.jpg?oh=3c69487ae44891c5df161d592c8735a1&oe=554A8130&__gda__=1432479183_e11809ddd5cbee85fc8ce12f640b18ce
p10
sg4
Vtaken while filming httpsvimeocom101550349Nature shows beautyBeauty shows designDesign 18ce
p11
sa(dp12
g2
Vhttps://scontent-b.xx.fbcdn.net/hphotos-xpa1/v/t1.0-9/p180x540/10378912_10152720588396055_7822203903225388525_n.jpg?oh=020145556c620e511532dd3ec2c646fb&oe=5559F513
p13
sg4
VWhere are weHow did we get hereWhy are we in a cloudF513
p14
sa(dp15
g2
Vhttps://fbcdn-sphotos-d-a.akamaihd.net/hphotos-ak-xpa1/t31.0-8/q81/p180x540/10339336_10152695799761055_2466117608033262605_o.jpg
p16
sg4
Vblazin our own trail.jpg
p17
sa(dp18
g2
Vhttps://fbcdn-sphotos-f-a.akamaihd.net/hphotos-ak-xfp1/t31.0-8/p180x540/906296_10152695799696055_8186369928352237692_o.jpg
p19
sg4
Vtrying to picture the past.jpg
p20
sa(dp21
g2
Vhttps://scontent-a.xx.fbcdn.net/hphotos-xaf1/t31.0-8/s720x720/10369050_10152695799536055_6022986289011256717_o.jpg
p22
sg4
Vjust a Saturday stumbling upon beautiful things and filming my next sign language video.jpg
p23
sa(dp24
g2
Vhttps://fbcdn-sphotos-g-a.akamaihd.net/hphotos-ak-xfp1/t31.0-8/s720x720/10380648_10152695799421055_3448453262011349325_o.jpg
p25
sg4
Vhey there mama duck.jpg
p26
sa(dp27
g2
Vhttps://fbcdn-sphotos-h-a.akamaihd.net/hphotos-ak-xap1/t31.0-8/p180x540/10476572_10152695799266055_4409020400060215648_o.jpg
p28
sg4
Vbroken but mysterious.jpg
p29
sa(dp30
g2
Vhttps://fbcdn-sphotos-b-a.akamaihd.net/hphotos-ak-xpf1/t31.0-8/p180x540/10383720_10152695799221055_997288315601284663_o.jpg
p31
sg4
Vworn but beautiful.jpg
p32
sa(dp33
g2
Vhttps://scontent-b.xx.fbcdn.net/hphotos-xap1/t31.0-8/s720x720/10511399_10152695799106055_746332053653324572_o.jpg
p34
sg4
Vwill it make it.jpg
p35
sa(dp36
g2
Vhttps://scontent-b.xx.fbcdn.net/hphotos-xpf1/t31.0-8/p180x540/10428349_10152695798981055_1251201519343226694_o.jpg
p37
sg4
Vdramatic.jpg
p38
sa(dp39
g2
Vhttps://scontent-a.xx.fbcdn.net/hphotos-xfp1/t31.0-8/p180x540/10011954_10152695798931055_4090681855530118105_o.jpg
p40
sg4
Vbasketball night.jpg
p41
sa(dp42
g2
Vhttps://scontent-a.xx.fbcdn.net/hphotos-xpa1/t31.0-8/q82/s720x720/10373110_10152695798861055_4529266895348808655_o.jpg
p43
sg4
Vthe Loft.jpg
p44
sa(dp45
g2
Vhttps://scontent-a.xx.fbcdn.net/hphotos-xaf1/t31.0-8/s720x720/10382075_10152695798716055_5576689993900206754_o.jpg
p46
sg4
Vsometimes you just need a day off to enjoy sunshine and a good book  the simpler things.jpg
p47
sa(dp48
g2
Vhttps://fbcdn-sphotos-e-a.akamaihd.net/hphotos-ak-xpf1/t31.0-8/q86/s720x720/10355481_10152695798636055_5077691223445904884_o.jpg
p49
sg4
Velegant explosions.jpg
p50
sa(dp51
g2
Vhttps://fbcdn-sphotos-h-a.akamaihd.net/hphotos-ak-xpa1/t31.0-8/s720x720/10379776_10152695798546055_965353565115979246_o.jpg
p52
sg4
Vboom goes the firework.jpg
p53
sa(dp54
g2
Vhttps://fbcdn-sphotos-b-a.akamaihd.net/hphotos-ak-xap1/t31.0-8/p180x540/10491355_10152695798476055_6844689192096212685_o.jpg
p55
sg4
VWaitin for the fireworks like giddy children following the sound of a marching band  Oh wait th.jpg
p56
sa(dp57
g2
Vhttps://fbcdn-sphotos-a-a.akamaihd.net/hphotos-ak-xfa1/t31.0-8/q87/s720x720/10494351_10152695798396055_4299661144796085902_o.jpg
p58
sg4
VA moonlit walk home.jpg
p59
sa(dp60
g2
Vhttps://fbcdn-sphotos-g-a.akamaihd.net/hphotos-ak-xfp1/t31.0-8/q91/p180x540/10379920_10152695798336055_3483549266703001212_o.jpg
p61
sg4
VOh the irony  Incredible.jpg
p62
sa(dp63
g2
Vhttps://scontent-a.xx.fbcdn.net/hphotos-xfa1/t31.0-8/s720x720/10368909_10152695798251055_3040235245848481306_o.jpg
p64
sg4
VIs this a resort or a university  Are you sure.jpg
p65
sa(dp66
g2
Vhttps://fbcdn-sphotos-c-a.akamaihd.net/hphotos-ak-xpf1/t31.0-8/q84/p180x540/10497244_10152695798196055_5764076227430371742_o.jpg
p67
sg4
VIsnt it fun when friends just happen to be close by.jpg
p68
sa(dp69
g2
Vhttps://scontent-b.xx.fbcdn.net/hphotos-xpf1/t31.0-8/s720x720/10338571_10152695798101055_4819306831819722397_o.jpg
p70
sg4
VOn my way.jpg
p71
sa(dp72
g2
Vhttps://fbcdn-sphotos-h-a.akamaihd.net/hphotos-ak-xfp1/t31.0-8/q85/p180x540/10499511_10152695798021055_2963647245665131501_o.jpg
p73
sg4
VI actually like the blur in this one  Artsy.jpg
p74
sa(dp75
g2
Vhttps://fbcdn-sphotos-f-a.akamaihd.net/hphotos-ak-xap1/t31.0-8/s720x720/10448510_10152695797906055_7940443706534612903_o.jpg
p76
sg4
VI love wooden boardwalks.jpg
p77
sa(dp78
g2
Vhttps://fbcdn-sphotos-d-a.akamaihd.net/hphotos-ak-xpf1/t31.0-8/s720x720/10498203_10152695797786055_8343382250840952098_o.jpg
p79
sg4
Vold war bunkers.jpg
p80
sa(dp81
g2
Vhttps://scontent-a.xx.fbcdn.net/hphotos-xpa1/t31.0-8/s720x720/10431354_10152695797586055_8275927686085625959_o.jpg
p82
sg4
Vwe forgot our jackets but lets hike this trail - why not.jpg
p83
sa(dp84
g2
Vhttps://scontent-a.xx.fbcdn.net/hphotos-xap1/t31.0-8/q84/s720x720/10321045_10152695797476055_4922603133573393287_o.jpg
p85
sg4
Vanother Alyssa setup.jpg
p86
sa(dp87
g2
Vhttps://scontent-b.xx.fbcdn.net/hphotos-xpf1/t31.0-8/s720x720/10379811_10152695797371055_7423795869573997340_o.jpg
p88
sg4
Vdramatic fog.jpg
p89
sa(dp90
g2
Vhttps://fbcdn-sphotos-h-a.akamaihd.net/hphotos-ak-xpf1/t31.0-8/p180x540/10372874_10152695797286055_5411279961758549999_o.jpg
p91
sg4
VA sibling day.jpg
p92
sa(dp93
g2
Vhttps://fbcdn-sphotos-f-a.akamaihd.net/hphotos-ak-xpa1/t31.0-8/p180x540/10397101_10152695797226055_297433190628710234_o.jpg
p94
sg4
Vby the bridge.jpg
p95
sa(dp96
g2
Vhttps://fbcdn-sphotos-d-a.akamaihd.net/hphotos-ak-xpf1/t31.0-8/p180x540/10359013_10152695797156055_4304333988969160940_o.jpg
p97
sg4
Vhmm I dunno about this one.jpg
p98
sa(dp99
g2
Vhttps://scontent-a.xx.fbcdn.net/hphotos-xap1/t31.0-8/q81/s720x720/10369045_10152695797111055_3281813446370170745_o.jpg
p100
sg4
Vsorry Vivek just ducks.jpg
p101
sa(dp102
g2
Vhttps://scontent-a.xx.fbcdn.net/hphotos-xpa1/t31.0-8/s720x720/10344235_10152695796996055_4841796797545942933_o.jpg
p103
sg4
Vthese are pretty random careers if you ask me.jpg
p104
sa(dp105
g2
Vhttps://scontent-a.xx.fbcdn.net/hphotos-xpa1/t31.0-8/p180x540/10397256_10152695796856055_3344607883594201492_o.jpg
p106
sg4
Vold fashioned gifs.jpg
p107
sa(dp108
g2
Vhttps://fbcdn-sphotos-c-a.akamaihd.net/hphotos-ak-xpa1/t31.0-8/s720x720/10446041_10152695796736055_7476790990942097274_o.jpg
p109
sg4
VThey know best right.jpg
p110
sa(dp111
g2
Vhttps://scontent-b.xx.fbcdn.net/hphotos-xap1/t31.0-8/p180x540/10494347_10152695796676055_417081248761189726_o.jpg
p112
sg4
VAnimals bred forbread.jpg
p113
sa(dp114
g2
Vhttps://fbcdn-sphotos-d-a.akamaihd.net/hphotos-ak-xfp1/t31.0-8/s720x720/10369000_10152695796596055_5816099789267500763_o.jpg
p115
sg4
Vanother part of that ridiculous mall.jpg
p116
sa(dp117
g2
Vhttps://fbcdn-sphotos-c-a.akamaihd.net/hphotos-ak-xpa1/t31.0-8/p180x540/10506739_10152695796456055_362481793172226128_o.jpg
p118
sg4
VDown by the baywhere the watermelons grow.jpg
p119
sa(dp120
g2
Vhttps://scontent-a.xx.fbcdn.net/hphotos-xap1/t31.0-8/p180x540/10479152_10152695796361055_4323732154668759978_o.jpg
p121
sg4
VI really had to try an oyster I guessyuck.jpg
p122
sa(dp123
g2
Vhttps://fbcdn-sphotos-g-a.akamaihd.net/hphotos-ak-xpa1/t31.0-8/p180x540/10459048_10152695796281055_9128965156657183056_o.jpg
p124
sg4
VAlyssa said my goat face wasnt up to par  We tried many times  This was the best I could do.jpg
p125
sa(dp126
g2
Vhttps://scontent-a.xx.fbcdn.net/hphotos-xfp1/t31.0-8/s720x720/10495055_10152695796241055_6881904891672348556_o.jpg
p127
sg4
V10495055_10152695796241055_6881904891672348556_o.jpg
p128
sa(dp129
g2
Vhttps://fbcdn-sphotos-d-a.akamaihd.net/hphotos-ak-xpf1/t31.0-8/s720x720/1531743_10152695796086055_8134098767051987497_o.jpg
p130
sg4
VI think thats the morning coming through.jpg
p131
sa(dp132
g2
Vhttps://fbcdn-sphotos-f-a.akamaihd.net/hphotos-ak-xap1/t31.0-8/p180x540/10269291_10152695795961055_5403183777896747751_o.jpg
p133
sg4
VDolores Park on a Sunday afternoon.jpg
p134
sa(dp135
g2
Vhttps://scontent-b.xx.fbcdn.net/hphotos-xpf1/t31.0-8/s720x720/10482284_10152695795901055_2120979833493052336_o.jpg
p136
sg4
VBy the piers.jpg
p137
sa(dp138
g2
Vhttps://fbcdn-sphotos-b-a.akamaihd.net/hphotos-ak-xap1/t31.0-8/s720x720/10475978_10152695795841055_1544686766734117891_o.jpg
p139
sg4
VThe steepest streets I ever did see.jpg
p140
sa(dp141
g2
Vhttps://fbcdn-sphotos-e-a.akamaihd.net/hphotos-ak-xfp1/t31.0-8/s720x720/10355641_10152695795776055_3787503202560599502_o.jpg
p142
sg4
VA majestic mall with curvy escalators.jpg
p143
sa(dp144
g2
Vhttps://scontent-a.xx.fbcdn.net/hphotos-xpa1/t31.0-8/s720x720/10473335_10152695795701055_7760311231373636457_o.jpg
p145
sg4
VAww a reminder of home on my run.jpg
p146
sa(dp147
g2
Vhttps://fbcdn-sphotos-d-a.akamaihd.net/hphotos-ak-xpf1/t31.0-8/p180x540/10380031_10152695795606055_4550652278674052737_o.jpg
p148
sg4
VSuper Meat Boy in the window  Yeahhh.jpg
p149
sa(dp150
g2
Vhttps://scontent-b.xx.fbcdn.net/hphotos-xpa1/t31.0-8/s720x720/10498525_10152695795446055_4245383778557049399_o.jpg
p151
sg4
Vtook the long way home from work one day.jpg
p152
sa(dp153
g2
Vhttps://fbcdn-sphotos-h-a.akamaihd.net/hphotos-ak-xpa1/t31.0-8/q81/p180x540/10460908_10152695795376055_5303771907231457922_o.jpg
p154
sg4
VA spontaneous Imagine Dragons concert to remember.jpg
p155
sa(dp156
g2
Vhttps://fbcdn-sphotos-b-a.akamaihd.net/hphotos-ak-xpf1/t31.0-8/p180x540/10397177_10152695795321055_4243856056085326567_o.jpg
p157
sg4
VI hear these people outside my window at work ).jpg
p158
sa(dp159
g2
Vhttps://fbcdn-sphotos-c-a.akamaihd.net/hphotos-ak-xfa1/t31.0-8/s720x720/10506700_10152695795241055_253705229053633639_o.jpg
p160
sg4
Vcherry picker conga line.jpg
p161
sa(dp162
g2
Vhttps://scontent-a.xx.fbcdn.net/hphotos-xpf1/t31.0-8/q88/s720x720/10348864_10152695795191055_5229787099469498741_o.jpg
p163
sg4
Va dramatic light in the nighttime.jpg
p164
sa(dp165
g2
Vhttps://fbcdn-sphotos-g-a.akamaihd.net/hphotos-ak-xfa1/t31.0-8/s720x720/10348933_10152695795116055_5192289982893818941_o.jpg
p166
sg4
Vaw a little floating cloud.jpg
p167
sa(dp168
g2
Vhttps://scontent-a.xx.fbcdn.net/hphotos-xaf1/t31.0-8/p180x540/10329737_10152695795041055_8533524133550920714_o.jpg
p169
sg4
VColorado.jpg
p170
sa(dp171
g2
Vhttps://scontent-a.xx.fbcdn.net/hphotos-xpa1/t31.0-8/s720x720/10383780_10152695794986055_5511777026352534217_o.jpg
p172
sg4
VWauwatosa Village.jpg
p173
sa(dp174
g2
Vhttps://fbcdn-sphotos-e-a.akamaihd.net/hphotos-ak-xap1/t31.0-8/p180x540/10365558_10152695794696055_8565653920022834955_o.jpg
p175
sg4
Vno place like home.jpg
p176
sa(dp177
g2
Vhttps://fbcdn-sphotos-e-a.akamaihd.net/hphotos-ak-xaf1/t31.0-8/q88/p180x540/664369_10152566641376055_421455538425761830_o.jpg
p178
sg4
VI live my life in layers of abstraction.jpg
p179
sa(dp180
g2
Vhttps://fbcdn-sphotos-d-a.akamaihd.net/hphotos-ak-xfp1/v/t1.0-9/p180x540/10157403_10152494432351055_1156286930_n.jpg?oh=d1697c8fe95550fb64c3d9c732f280a8&oe=555164AA&__gda__=1432960975_ec4660f64a02d8be1a861edf30befb43
p181
sg4
VJUST MET SAL KHANCreator of the educational platform that has helped millions around the world ffb43
p182
sa(dp183
g2
Vhttps://fbcdn-sphotos-g-a.akamaihd.net/hphotos-ak-xpf1/t31.0-8/q83/s720x720/1973328_10152452900846055_1236096160_o.jpg
p184
sg4
Vthe original beer cave.jpg
p185
sa(dp186
g2
Vhttps://scontent-a.xx.fbcdn.net/hphotos-xpa1/t31.0-8/p180x540/1504183_10152452900626055_679323428_o.jpg
p187
sg4
Vthe Miller tour with the fresh 21 year olds.jpg
p188
sa(dp189
g2
Vhttps://scontent-b.xx.fbcdn.net/hphotos-xpa1/t31.0-8/q81/s720x720/1417695_10152452900426055_1429739036_o.jpg
p190
sg4
Vthat SASSY wisconsin milkdont give me no pop no popdont give me no tea no tea.jpg
p191
sa(dp192
g2
Vhttps://scontent-b.xx.fbcdn.net/hphotos-xpf1/t31.0-8/s720x720/1669964_10152452900336055_364393429_o.jpg
p193
sg4
Vsensual.jpg
p194
sa(dp195
g2
Vhttps://scontent-a.xx.fbcdn.net/hphotos-xpf1/t31.0-8/p180x540/1979297_10152452900101055_1208072521_o.jpg
p196
sg4
V1979297_10152452900101055_1208072521_o.jpg
p197
sa(dp198
g2
Vhttps://fbcdn-sphotos-e-a.akamaihd.net/hphotos-ak-xfp1/t31.0-8/s720x720/10005945_10152452899976055_110855771_o.jpg
p199
sg4
Vcool but deadly.jpg
p200
sa(dp201
g2
Vhttps://scontent-a.xx.fbcdn.net/hphotos-xfa1/t31.0-8/s720x720/1084906_10152452899686055_361583640_o.jpg
p202
sg4
Vi think he heard me press my silent iPhone camera button.jpg
p203
sa(dp204
g2
Vhttps://scontent-a.xx.fbcdn.net/hphotos-xfa1/t31.0-8/p180x540/1618217_10152452899561055_1144268958_o.jpg
p205
sg4
VMONGOOSE YOGAsign me up yo.jpg
p206
sa(dp207
g2
Vhttps://scontent-b.xx.fbcdn.net/hphotos-xpf1/t31.0-8/s720x720/1890355_10152452899486055_1583653292_o.jpg
p208
sg4
V1890355_10152452899486055_1583653292_o.jpg
p209
sa(dp210
g2
Vhttps://fbcdn-sphotos-f-a.akamaihd.net/hphotos-ak-xpf1/t31.0-8/p180x540/1960942_10152452899376055_1480071131_o.jpg
p211
sg4
Vmy favorite monkeys.jpg
p212
sa(dp213
g2
Vhttps://fbcdn-sphotos-h-a.akamaihd.net/hphotos-ak-xap1/t31.0-8/s720x720/1962374_10152452899221055_1186861821_o.jpg
p214
sg4
Vgrandpa monkey face.jpg
p215
sa(dp216
g2
Vhttps://fbcdn-sphotos-b-a.akamaihd.net/hphotos-ak-xfp1/t31.0-8/p180x540/1960925_10152452899066055_1322534926_o.jpg
p217
sg4
Vwhat would a caribou do.jpg
p218
sa(dp219
g2
Vhttps://fbcdn-sphotos-g-a.akamaihd.net/hphotos-ak-prn1/t31.0-8/q83/p180x540/1658582_10152452898921055_654448983_o.jpg
p220
sg4
Vthe little mammals were all over the park.jpg
p221
sa(dp222
g2
Vhttps://fbcdn-sphotos-a-a.akamaihd.net/hphotos-ak-xaf1/t31.0-8/s720x720/1962037_10152452898781055_319937132_o.jpg
p223
sg4
Vhes a birdthis is three seconds before we lost ducky forever(.jpg
p224
sa(dp225
g2
Vhttps://fbcdn-sphotos-b-a.akamaihd.net/hphotos-ak-xpf1/t31.0-8/p180x540/1973528_10152452898656055_849592511_o.jpg
p226
sg4
Vtotes ma goatz.jpg
p227
sa(dp228
g2
Vhttps://fbcdn-sphotos-h-a.akamaihd.net/hphotos-ak-xpf1/t31.0-8/s720x720/10000984_10152452898526055_2005155776_o.jpg
p229
sg4
Veverybody has a baby kangaroo.jpg
p230
sa(dp231
g2
Vhttps://scontent-b.xx.fbcdn.net/hphotos-xpa1/t31.0-8/s720x720/1622454_10152452898431055_183818233_o.jpg
p232
sg4
VDIVA elephant.jpg
p233
sa(dp234
g2
Vhttps://fbcdn-sphotos-d-a.akamaihd.net/hphotos-ak-xap1/t31.0-8/p180x540/1618278_10152452898266055_1021485197_o.jpg
p235
sg4
Vthe lion was up for this collaborative photo.jpg
p236
sa(dp237
g2
Vhttps://scontent-a.xx.fbcdn.net/hphotos-xpf1/v/t1.0-9/1966768_10152452898171055_1516602431_n.jpg?oh=c02a1981c461e052605d87540474e934&oe=55616F04
p238
sg4
Vnose to nose rawr6F04
p239
sa(dp240
g2
Vhttps://fbcdn-sphotos-g-a.akamaihd.net/hphotos-ak-xpa1/t31.0-8/p180x540/1921220_10152452898071055_826769469_o.jpg
p241
sg4
VHAWKWARD.jpg
p242
sa(dp243
g2
Vhttps://scontent-a.xx.fbcdn.net/hphotos-xaf1/t31.0-8/s720x720/1669842_10152452897931055_69117763_o.jpg
p244
sg4
Vsad truth.jpg
p245
sa(dp246
g2
Vhttps://scontent-a.xx.fbcdn.net/hphotos-xfp1/t31.0-8/s720x720/10011689_10152452897841055_483468515_o.jpg
p247
sg4
Vim so excited.jpg
p248
sa(dp249
g2
Vhttps://scontent-b.xx.fbcdn.net/hphotos-xfp1/t31.0-8/p180x540/1669718_10152452897736055_1811380242_o.jpg
p250
sg4
Vthe chocolate milk cow.jpg
p251
sa(dp252
g2
Vhttps://scontent-b.xx.fbcdn.net/hphotos-xpf1/t31.0-8/p180x540/10007307_10152452897666055_770154141_o.jpg
p253
sg4
V10007307_10152452897666055_770154141_o.jpg
p254
sa(dp255
g2
Vhttps://fbcdn-sphotos-a-a.akamaihd.net/hphotos-ak-xpf1/t31.0-8/p180x540/1956836_10152452897591055_1875531431_o.jpg
p256
sg4
V1956836_10152452897591055_1875531431_o.jpg
p257
sa(dp258
g2
Vhttps://fbcdn-sphotos-g-a.akamaihd.net/hphotos-ak-xfp1/t31.0-8/s720x720/1015034_10152452897456055_1009854515_o.jpg
p259
sg4
V1015034_10152452897456055_1009854515_o.jpg
p260
sa(dp261
g2
Vhttps://scontent-a.xx.fbcdn.net/hphotos-xfp1/t31.0-8/s720x720/1974118_10152452897326055_1997597290_o.jpg
p262
sg4
V1974118_10152452897326055_1997597290_o.jpg
p263
sa(dp264
g2
Vhttps://fbcdn-sphotos-c-a.akamaihd.net/hphotos-ak-xap1/t31.0-8/q85/s720x720/1941358_10152452897206055_1638839717_o.jpg
p265
sg4
Vmaybe the most accurate one.jpg
p266
sa(dp267
g2
Vhttps://scontent-b.xx.fbcdn.net/hphotos-xpf1/t31.0-8/q90/s720x720/1799160_10152452897076055_959709135_o.jpg
p268
sg4
V1799160_10152452897076055_959709135_o.jpg
p269
sa(dp270
g2
Vhttps://scontent-b.xx.fbcdn.net/hphotos-xap1/t31.0-8/p180x540/1956905_10152452896946055_1023198936_o.jpg
p271
sg4
Vthe original duck face.jpg
p272
sa(dp273
g2
Vhttps://scontent-b.xx.fbcdn.net/hphotos-xpf1/t31.0-8/s720x720/1658523_10152452896856055_1248942907_o.jpg
p274
sg4
V1658523_10152452896856055_1248942907_o.jpg
p275
sa(dp276
g2
Vhttps://fbcdn-sphotos-d-a.akamaihd.net/hphotos-ak-xap1/t31.0-8/s720x720/1655759_10152452896706055_142437791_o.jpg
p277
sg4
Vtheres two living people in this picture.jpg
p278
sa(dp279
g2
Vhttps://scontent-a.xx.fbcdn.net/hphotos-xpf1/t31.0-8/s720x720/1980078_10152452896601055_980000219_o.jpg
p280
sg4
V1980078_10152452896601055_980000219_o.jpg
p281
sa(dp282
g2
Vhttps://fbcdn-sphotos-g-a.akamaihd.net/hphotos-ak-xfp1/t31.0-8/p180x540/1913444_10152452896516055_94093648_o.jpg
p283
sg4
V1913444_10152452896516055_94093648_o.jpg
p284
sa(dp285
g2
Vhttps://fbcdn-sphotos-h-a.akamaihd.net/hphotos-ak-xpf1/t31.0-8/p180x540/1243637_10152452896411055_615518112_o.jpg
p286
sg4
Vpoke.jpg
p287
sa(dp288
g2
Vhttps://fbcdn-sphotos-b-a.akamaihd.net/hphotos-ak-xpa1/t31.0-8/p180x540/1782449_10152452896171055_628522501_o.jpg
p289
sg4
Vthe food chain.jpg
p290
sa(dp291
g2
Vhttps://scontent-b.xx.fbcdn.net/hphotos-xpf1/t31.0-8/p180x540/1622309_10152452896026055_1502573093_o.jpg
p292
sg4
V1622309_10152452896026055_1502573093_o.jpg
p293
sa(dp294
g2
Vhttps://fbcdn-sphotos-f-a.akamaihd.net/hphotos-ak-xpa1/t31.0-8/p180x540/1504272_10152452895921055_492974913_o.jpg
p295
sg4
Vbuffalo secrets.jpg
p296
sa(dp297
g2
Vhttps://scontent-a.xx.fbcdn.net/hphotos-xap1/t31.0-8/p180x540/1669730_10152452895761055_498230880_o.jpg
p298
sg4
Vwe had to do this one like 15 timesawkwardd.jpg
p299
sa(dp300
g2
Vhttps://fbcdn-sphotos-a-a.akamaihd.net/hphotos-ak-xpa1/t31.0-8/p180x540/1891365_10152452895611055_2018213832_o.jpg
p301
sg4
V1891365_10152452895611055_2018213832_o.jpg
p302
sa(dp303
g2
Vhttps://fbcdn-sphotos-c-a.akamaihd.net/hphotos-ak-xaf1/t31.0-8/s720x720/1891493_10152452895506055_1861053503_o.jpg
p304
sg4
V1891493_10152452895506055_1861053503_o.jpg
p305
sa(dp306
g2
Vhttps://fbcdn-sphotos-e-a.akamaihd.net/hphotos-ak-xpf1/t31.0-8/p180x540/1658263_10152452895286055_1823383142_o.jpg
p307
sg4
Vthis is where the expressions begin.jpg
p308
sa(dp309
g2
Vhttps://scontent-b.xx.fbcdn.net/hphotos-xpf1/t31.0-8/p180x540/10003706_10152452895166055_188671575_o.jpg
p310
sg4
Vthe REAL angry birds.jpg
p311
sa(dp312
g2
Vhttps://fbcdn-sphotos-h-a.akamaihd.net/hphotos-ak-xpf1/v/t1.0-9/s720x720/10002946_10152452894916055_526098113_n.jpg?oh=2b321a932cff246f42ef19d351d1ba3b&oe=556A1ABD&__gda__=1431026306_29e7157c94ead282ff2ccdc847f5e833
p313
sg4
VThe Art Museum Calatravae833
p314
sa(dp315
g2
Vhttps://fbcdn-sphotos-g-a.akamaihd.net/hphotos-ak-xfp1/v/t1.0-9/1902809_10152426769951055_151624307_n.jpg?oh=a0c1cf90eda1f08a702f35e95c7f9be6&oe=5564FA36&__gda__=1432695404_ef18fb6b761bfa3bdcc33c7a0e5ee446
p316
sg4
VMat Kearney replied to me on twitterwatched my sign language videoAHHstarstruckhttpste446
p317
sa(dp318
g2
Vhttps://fbcdn-sphotos-f-a.akamaihd.net/hphotos-ak-xpf1/v/t1.0-9/1625600_10152370082286055_1760763580_n.jpg?oh=e1f06df06f9f294a1ddd51c6d41a33f8&oe=55602198&__gda__=1432128581_194daa05d3567bd1915e2e4e2fd3ecaf
p319
sg4
Vhttpwwwchevroletcompurple-roads-world-cancer-dayhtmlecaf
p320
sa(dp321
g2
Vhttps://fbcdn-sphotos-h-a.akamaihd.net/hphotos-ak-xpa1/v/t1.0-9/p180x540/1524953_10152330535956055_68676472_n.jpg?oh=3a7973fb100e0ff2758639b8dec75561&oe=5561F444&__gda__=1432628601_8060d28d16bd77231681ae8e6a64eeee
p322
sg4
VBeautifuleeee
p323
sa(dp324
g2
Vhttps://fbcdn-sphotos-d-a.akamaihd.net/hphotos-ak-xpa1/v/t1.0-9/s720x720/1522139_10152265083061055_1421284590_n.jpg?oh=ee2dfd7ddfc606f6b99e369c329279cd&oe=5568FE37&__gda__=1431291485_ab288dfafb4d85431b73889b1cfa187e
p325
sg4
VTheres no Christmastime light display quite like a nighttime flight home  )187e
p326
sa(dp327
g2
Vhttps://fbcdn-sphotos-b-a.akamaihd.net/hphotos-ak-xpa1/v/t1.0-9/s720x720/936505_10152217546026055_299643129_n.jpg?oh=b6fd53fba0a2549afbde3444676deeb1&oe=555E0438&__gda__=1432290821_f26a0cdbbab4fb991c5fe95b427a6205
p328
sg4
Vawwwww yes bring on the Wisconsin custard6205
p329
sa(dp330
g2
Vhttps://fbcdn-sphotos-b-a.akamaihd.net/hphotos-ak-xfp1/v/t1.0-9/p720x720/1395950_10152149109076055_1812304912_n.jpg?oh=f285892cafed25c00af44b8073ba841a&oe=55628681&__gda__=1432876497_50798592b8735c1e115312941b96f040
p331
sg4
V1395950_10152149109076055_1812304912_n.jpg?oh=f285892cafed25c00af44b8073ba841a&oe=55628681&__gda__=1432876497_50798592b8735c1e115312941b96f040
p332
sa(dp333
g2
Vhttps://scontent-b.xx.fbcdn.net/hphotos-xpa1/v/t1.0-9/p720x720/1385804_10152149109071055_648636155_n.jpg?oh=cff063cd61edf32df1b47dc6ad7c29da&oe=556A071C
p334
sg4
V1385804_10152149109071055_648636155_n.jpg?oh=cff063cd61edf32df1b47dc6ad7c29da&oe=556A071C
p335
sa(dp336
g2
Vhttps://fbcdn-sphotos-e-a.akamaihd.net/hphotos-ak-frc3/v/t1.0-9/s720x720/1441271_10152148697826055_1184125308_n.jpg?oh=f81ea6a5cf7fd29a758d5cb6e8f382aa&oe=555E6042&__gda__=1432602903_3b1c6c1b95094c5c9c9dce5c90658c7b
p337
sg4
VIts bizarre seeing my name on the class schedule  0Friends interested in learning sign languag8c7b
p338
sa(dp339
g2
Vhttps://fbcdn-sphotos-a-a.akamaihd.net/hphotos-ak-xap1/v/t1.0-9/1380655_10152135279481055_1882897027_n.jpg?oh=279e941284cb5dcf0b8e684658bafb39&oe=5550CC8F&__gda__=1435694933_48984609f87a361654f6cacbfe2c2211
p340
sg4
VSunday Spent 14 hours debugging a kernel (guts of the computers code)TODAY My iPhones kern2211
p341
sa(dp342
g2
Vhttps://fbcdn-sphotos-f-a.akamaihd.net/hphotos-ak-xpa1/t31.0-8/p180x540/894439_10152122891361055_634026406_o.jpg
p343
sg4
V894439_10152122891361055_634026406_o.jpg
p344
sa(dp345
g2
Vhttps://scontent-b.xx.fbcdn.net/hphotos-xpf1/t31.0-8/q89/s720x720/903152_10152122891351055_1761396017_o.jpg
p346
sg4
V903152_10152122891351055_1761396017_o.jpg
p347
sa(dp348
g2
Vhttps://fbcdn-sphotos-h-a.akamaihd.net/hphotos-ak-xap1/t31.0-8/p180x540/1404526_10152122891331055_1234852963_o.jpg
p349
sg4
V1404526_10152122891331055_1234852963_o.jpg
p350
sa(dp351
g2
Vhttps://scontent-a.xx.fbcdn.net/hphotos-xap1/t31.0-8/q90/s720x720/1398437_10152122891316055_1606167400_o.jpg
p352
sg4
V1398437_10152122891316055_1606167400_o.jpg
p353
sa(dp354
g2
Vhttps://scontent-a.xx.fbcdn.net/hphotos-xap1/t31.0-8/s720x720/964181_10152122891096055_103337779_o.jpg
p355
sg4
V964181_10152122891096055_103337779_o.jpg
p356
sa(dp357
g2
Vhttps://scontent-b.xx.fbcdn.net/hphotos-xpa1/t31.0-8/q84/s720x720/1272857_10152122891051055_1177774297_o.jpg
p358
sg4
V1272857_10152122891051055_1177774297_o.jpg
p359
sa(dp360
g2
Vhttps://scontent-b.xx.fbcdn.net/hphotos-ash2/t31.0-8/q81/s720x720/885248_10152122891056055_549250812_o.jpg
p361
sg4
V885248_10152122891056055_549250812_o.jpg
p362
sa(dp363
g2
Vhttps://scontent-b.xx.fbcdn.net/hphotos-frc3/t31.0-8/q82/p180x540/1147501_10152122891041055_1984699714_o.jpg
p364
sg4
V1147501_10152122891041055_1984699714_o.jpg
p365
sa(dp366
g2
Vhttps://fbcdn-sphotos-b-a.akamaihd.net/hphotos-ak-prn2/t31.0-8/s720x720/1403372_10152122891021055_1889024050_o.jpg
p367
sg4
V1403372_10152122891021055_1889024050_o.jpg
p368
sa(dp369
g2
Vhttps://fbcdn-sphotos-c-a.akamaihd.net/hphotos-ak-xap1/t31.0-8/s720x720/1412322_10152122890981055_1101128127_o.jpg
p370
sg4
V1412322_10152122890981055_1101128127_o.jpg
p371
sa(dp372
g2
Vhttps://fbcdn-sphotos-h-a.akamaihd.net/hphotos-ak-xpa1/t31.0-8/p180x540/1265573_10152087711761055_1499587894_o.jpg
p373
sg4
VMourning the death of the T-RezBut his spirit roars onfreshmandormlife residenceswag.jpg
p374
sa(dp375
g2
Vhttps://fbcdn-sphotos-b-a.akamaihd.net/hphotos-ak-ash2/t31.0-8/s720x720/680352_10152084184656055_1244049091_o.jpg
p376
sg4
VThe most blessed summer.jpg
p377
sa(dp378
g2
Vhttps://fbcdn-sphotos-a-a.akamaihd.net/hphotos-ak-xpa1/v/t1.0-9/p180x540/1383218_10152083413846055_1002482266_n.jpg?oh=84562634ea28784cda045dcdf78c8a73&oe=5552994B&__gda__=1435633953_0cb8dca355b693cd49b54cfd34b78720
p379
sg4
V1383218_10152083413846055_1002482266_n.jpg?oh=84562634ea28784cda045dcdf78c8a73&oe=5552994B&__gda__=1435633953_0cb8dca355b693cd49b54cfd34b78720
p380
sa(dp381
g2
Vhttps://scontent-a.xx.fbcdn.net/hphotos-xpa1/v/t1.0-9/p180x540/1378242_10152083413736055_125165525_n.jpg?oh=f31557cb232b05780df994c56f8cdbe7&oe=55954C4A
p382
sg4
V1378242_10152083413736055_125165525_n.jpg?oh=f31557cb232b05780df994c56f8cdbe7&oe=55954C4A
p383
sa(dp384
g2
Vhttps://scontent-a.xx.fbcdn.net/hphotos-xap1/v/t1.0-9/1385191_10152083413671055_464273908_n.jpg?oh=bda263ef2392d06202e18a01c3be89c9&oe=555AC4ED
p385
sg4
V1385191_10152083413671055_464273908_n.jpg?oh=bda263ef2392d06202e18a01c3be89c9&oe=555AC4ED
p386
sa(dp387
g2
Vhttps://fbcdn-sphotos-c-a.akamaihd.net/hphotos-ak-xap1/v/t1.0-9/p180x540/1234419_10152083413591055_1601641321_n.jpg?oh=710bebf4be05563619fd4c21f5a18c2b&oe=5554CE71&__gda__=1431906632_a8e93e6562a900176ca6c749d00214a4
p388
sg4
V1234419_10152083413591055_1601641321_n.jpg?oh=710bebf4be05563619fd4c21f5a18c2b&oe=5554CE71&__gda__=1431906632_a8e93e6562a900176ca6c749d00214a4
p389
sa(dp390
g2
Vhttps://fbcdn-sphotos-b-a.akamaihd.net/hphotos-ak-ash2/v/t1.0-9/q81/p180x540/1381494_10152083413531055_823770613_n.jpg?oh=8c1d02eaa2dd4d6878d901b2535fd19e&oe=5594321D&__gda__=1432405789_3611ce781ad5b8900c6550036074d406
p391
sg4
V1381494_10152083413531055_823770613_n.jpg?oh=8c1d02eaa2dd4d6878d901b2535fd19e&oe=5594321D&__gda__=1432405789_3611ce781ad5b8900c6550036074d406
p392
sa(dp393
g2
Vhttps://fbcdn-sphotos-h-a.akamaihd.net/hphotos-ak-prn2/v/t1.0-9/p180x540/559451_10152083413386055_1073497092_n.jpg?oh=0df4f693846b6b7d633316427051c392&oe=5564C53E&__gda__=1431656900_539da99480c86f86dadfa069929b3e24
p394
sg4
V559451_10152083413386055_1073497092_n.jpg?oh=0df4f693846b6b7d633316427051c392&oe=5564C53E&__gda__=1431656900_539da99480c86f86dadfa069929b3e24
p395
sa(dp396
g2
Vhttps://fbcdn-sphotos-f-a.akamaihd.net/hphotos-ak-xpa1/v/t1.0-9/s720x720/1383071_10152083413331055_124725781_n.jpg?oh=19184582534b3d4d112ed3d9b9f3cad5&oe=5566C1A9&__gda__=1431118865_461fe9e7d0e963287ecda8b46c6c5e81
p397
sg4
V1383071_10152083413331055_124725781_n.jpg?oh=19184582534b3d4d112ed3d9b9f3cad5&oe=5566C1A9&__gda__=1431118865_461fe9e7d0e963287ecda8b46c6c5e81
p398
sa(dp399
g2
Vhttps://scontent-b.xx.fbcdn.net/hphotos-prn2/v/t1.0-9/s720x720/545238_10152083413191055_2117205132_n.jpg?oh=9f9490d172ef7c7410d0366908635734&oe=554E050C
p400
sg4
V545238_10152083413191055_2117205132_n.jpg?oh=9f9490d172ef7c7410d0366908635734&oe=554E050C
p401
sa(dp402
g2
Vhttps://scontent-a.xx.fbcdn.net/hphotos-frc3/v/t1.0-9/s720x720/540128_10152083413121055_895613281_n.jpg?oh=eddbcb4e3647e34625d8bc88196b5744&oe=5554FBFB
p403
sg4
V540128_10152083413121055_895613281_n.jpg?oh=eddbcb4e3647e34625d8bc88196b5744&oe=5554FBFB
p404
sa(dp405
g2
Vhttps://fbcdn-sphotos-a-a.akamaihd.net/hphotos-ak-xpa1/v/t1.0-9/p180x540/1383901_10152083413006055_2084966905_n.jpg?oh=2e65a582db891aea99b75549bcb5112d&oe=5563D374&__gda__=1431449118_ba811d6d8a8477a92158cffd60f771fa
p406
sg4
V1383901_10152083413006055_2084966905_n.jpg?oh=2e65a582db891aea99b75549bcb5112d&oe=5563D374&__gda__=1431449118_ba811d6d8a8477a92158cffd60f771fa
p407
sa(dp408
g2
Vhttps://scontent-b.xx.fbcdn.net/hphotos-xpa1/v/t1.0-9/p180x540/1377568_10152083412936055_1030274358_n.jpg?oh=73252ed8bdc628dba479806bea2b7212&oe=555FB04A
p409
sg4
V1377568_10152083412936055_1030274358_n.jpg?oh=73252ed8bdc628dba479806bea2b7212&oe=555FB04A
p410
sa(dp411
g2
Vhttps://fbcdn-sphotos-h-a.akamaihd.net/hphotos-ak-xpf1/v/t1.0-9/p180x540/1375252_10152083412831055_3803081_n.jpg?oh=84cd0b4bbb22a48efd1693450eea3540&oe=5595EC58&__gda__=1432449716_046260b7fea3c6b58e24c089fc6cd472
p412
sg4
V1375252_10152083412831055_3803081_n.jpg?oh=84cd0b4bbb22a48efd1693450eea3540&oe=5595EC58&__gda__=1432449716_046260b7fea3c6b58e24c089fc6cd472
p413
sa(dp414
g2
Vhttps://fbcdn-sphotos-f-a.akamaihd.net/hphotos-ak-xap1/v/t1.0-9/p180x540/1375989_10152083412726055_709740758_n.jpg?oh=ba29baf61e367e804bb8c7b683ae4483&oe=5566FC1A&__gda__=1431580870_9d6b97d5fc48ec55c590d232827bd172
p415
sg4
V1375989_10152083412726055_709740758_n.jpg?oh=ba29baf61e367e804bb8c7b683ae4483&oe=5566FC1A&__gda__=1431580870_9d6b97d5fc48ec55c590d232827bd172
p416
sa(dp417
g2
Vhttps://fbcdn-sphotos-d-a.akamaihd.net/hphotos-ak-xfp1/v/t1.0-9/p180x540/1379796_10152083412616055_1296912103_n.jpg?oh=c2ea6c102810947147ecf6e237e77507&oe=5595A04D&__gda__=1430894621_bb648edb5038b983df37ff5b09ad5b06
p418
sg4
V1379796_10152083412616055_1296912103_n.jpg?oh=c2ea6c102810947147ecf6e237e77507&oe=5595A04D&__gda__=1430894621_bb648edb5038b983df37ff5b09ad5b06
p419
sa(dp420
g2
Vhttps://scontent-a.xx.fbcdn.net/hphotos-xap1/v/t1.0-9/s720x720/1385409_10152083412546055_333944350_n.jpg?oh=7d5b485e9e48d0b98b581178c5e70d32&oe=554EAB9E
p421
sg4
V1385409_10152083412546055_333944350_n.jpg?oh=7d5b485e9e48d0b98b581178c5e70d32&oe=554EAB9E
p422
sa(dp423
g2
Vhttps://fbcdn-sphotos-g-a.akamaihd.net/hphotos-ak-xpa1/v/t1.0-9/s720x720/1377252_10152083412386055_1376375530_n.jpg?oh=79698f9b67dfa808e08f80bc1cb38da0&oe=555FD56D&__gda__=1432439815_daa56e27208ae8168b5b63c8782adbd2
p424
sg4
V1377252_10152083412386055_1376375530_n.jpg?oh=79698f9b67dfa808e08f80bc1cb38da0&oe=555FD56D&__gda__=1432439815_daa56e27208ae8168b5b63c8782adbd2
p425
sa(dp426
g2
Vhttps://fbcdn-sphotos-e-a.akamaihd.net/hphotos-ak-ash2/v/t1.0-9/s720x720/993422_10152083412286055_2112985421_n.jpg?oh=259e7ecf09cfedc9ea8070e5860d45ba&oe=555651D4&__gda__=1432935128_5f09f2c77dad11964a7ea203125c52e6
p427
sg4
V993422_10152083412286055_2112985421_n.jpg?oh=259e7ecf09cfedc9ea8070e5860d45ba&oe=555651D4&__gda__=1432935128_5f09f2c77dad11964a7ea203125c52e6
p428
sa(dp429
g2
Vhttps://scontent-a.xx.fbcdn.net/hphotos-xap1/v/t1.0-9/p180x540/1385947_10152083412181055_1411747068_n.jpg?oh=0ef0f57818a8100cba5032ae55311a78&oe=55957914
p430
sg4
V1385947_10152083412181055_1411747068_n.jpg?oh=0ef0f57818a8100cba5032ae55311a78&oe=55957914
p431
sa(dp432
g2
Vhttps://scontent-b.xx.fbcdn.net/hphotos-xpa1/v/t1.0-9/s720x720/1379663_10152083412081055_1238860559_n.jpg?oh=9bf72b8f4eabe2aebd5365f061309f50&oe=554CD017
p433
sg4
V1379663_10152083412081055_1238860559_n.jpg?oh=9bf72b8f4eabe2aebd5365f061309f50&oe=554CD017
p434
sa(dp435
g2
Vhttps://fbcdn-sphotos-h-a.akamaihd.net/hphotos-ak-xfp1/v/t1.0-9/p180x540/1377455_10152083411991055_522793961_n.jpg?oh=960066639187940370f518e0a2abe51e&oe=55640048&__gda__=1432215745_1599071040c0e6b63e15d9a0e29e0275
p436
sg4
V1377455_10152083411991055_522793961_n.jpg?oh=960066639187940370f518e0a2abe51e&oe=55640048&__gda__=1432215745_1599071040c0e6b63e15d9a0e29e0275
p437
sa(dp438
g2
Vhttps://scontent-a.xx.fbcdn.net/hphotos-xap1/v/l/t1.0-9/s720x720/68655_10152083411916055_1175360665_n.jpg?oh=a916b6793d1061df94d2cebf12b8c478&oe=5569C65D
p439
sg4
V68655_10152083411916055_1175360665_n.jpg?oh=a916b6793d1061df94d2cebf12b8c478&oe=5569C65D
p440
sa(dp441
g2
Vhttps://scontent-a.xx.fbcdn.net/hphotos-xfp1/v/t1.0-9/s720x720/1238376_10152083411841055_2014297397_n.jpg?oh=e9efe60714ce9f5c10e2b33c862896b6&oe=55667209
p442
sg4
V1238376_10152083411841055_2014297397_n.jpg?oh=e9efe60714ce9f5c10e2b33c862896b6&oe=55667209
p443
sa(dp444
g2
Vhttps://scontent-a.xx.fbcdn.net/hphotos-xap1/v/t1.0-9/p180x540/1384346_10152083411756055_547830167_n.jpg?oh=1ba0210b453f7875d8c718f015c92bd3&oe=55506C46
p445
sg4
V1384346_10152083411756055_547830167_n.jpg?oh=1ba0210b453f7875d8c718f015c92bd3&oe=55506C46
p446
sa(dp447
g2
Vhttps://fbcdn-sphotos-e-a.akamaihd.net/hphotos-ak-xfa1/v/t1.0-9/p180x540/1173589_10152083411636055_1557022583_n.jpg?oh=391b5d2207e4d73da7a9b84d83da066b&oe=554DBA79&__gda__=1433000946_44c05e9d52fb752d0ff06f489b1a0f46
p448
sg4
V1173589_10152083411636055_1557022583_n.jpg?oh=391b5d2207e4d73da7a9b84d83da066b&oe=554DBA79&__gda__=1433000946_44c05e9d52fb752d0ff06f489b1a0f46
p449
sa(dp450
g2
Vhttps://scontent-b.xx.fbcdn.net/hphotos-xfp1/v/t1.0-9/s720x720/960169_10152083411486055_1971061226_n.jpg?oh=06df7fb11f949792a6f23a117ea83096&oe=5594FDF7
p451
sg4
V960169_10152083411486055_1971061226_n.jpg?oh=06df7fb11f949792a6f23a117ea83096&oe=5594FDF7
p452
sa(dp453
g2
Vhttps://fbcdn-sphotos-b-a.akamaihd.net/hphotos-ak-xpa1/v/t1.0-9/p180x540/1380512_10152083411446055_499138286_n.jpg?oh=8bda0e22bb6ee38d35430841efbcf310&oe=5554AC96&__gda__=1432322350_e03136ccff4d9268bb525e7ea6072f02
p454
sg4
V1380512_10152083411446055_499138286_n.jpg?oh=8bda0e22bb6ee38d35430841efbcf310&oe=5554AC96&__gda__=1432322350_e03136ccff4d9268bb525e7ea6072f02
p455
sa(dp456
g2
Vhttps://fbcdn-sphotos-d-a.akamaihd.net/hphotos-ak-ash2/v/t1.0-9/p180x540/598637_10152083411356055_1184740303_n.jpg?oh=c114beab662ae35a211c3a58fd7e48c4&oe=5595FA53&__gda__=1432301151_62b77a6d039f384da48bda6cd55c377f
p457
sg4
V598637_10152083411356055_1184740303_n.jpg?oh=c114beab662ae35a211c3a58fd7e48c4&oe=5595FA53&__gda__=1432301151_62b77a6d039f384da48bda6cd55c377f
p458
sa(dp459
g2
Vhttps://fbcdn-sphotos-f-a.akamaihd.net/hphotos-ak-xpa1/v/t1.0-9/p180x540/946404_10152083411301055_446970414_n.jpg?oh=eaa4efa5b2164e73b4eccbc4e095324c&oe=554D0D68&__gda__=1431197781_68aca0ef46178a6a5ced9fee7be060bf
p460
sg4
V946404_10152083411301055_446970414_n.jpg?oh=eaa4efa5b2164e73b4eccbc4e095324c&oe=554D0D68&__gda__=1431197781_68aca0ef46178a6a5ced9fee7be060bf
p461
sa(dp462
g2
Vhttps://scontent-a.xx.fbcdn.net/hphotos-ash2/v/t1.0-9/p180x540/1374184_10152083411216055_620849870_n.jpg?oh=2ece9d7cc57ebbc06debc62436982ff7&oe=5569A62A
p463
sg4
V1374184_10152083411216055_620849870_n.jpg?oh=2ece9d7cc57ebbc06debc62436982ff7&oe=5569A62A
p464
sa(dp465
g2
Vhttps://fbcdn-sphotos-g-a.akamaihd.net/hphotos-ak-xfa1/v/t1.0-9/p180x540/1377147_10152083411141055_1905318122_n.jpg?oh=112af92b2eb473f1f348c1289ccd827d&oe=55585FFB&__gda__=1430875504_dc1a3a860662250718e8f10564a5d6f3
p466
sg4
V1377147_10152083411141055_1905318122_n.jpg?oh=112af92b2eb473f1f348c1289ccd827d&oe=55585FFB&__gda__=1430875504_dc1a3a860662250718e8f10564a5d6f3
p467
sa(dp468
g2
Vhttps://fbcdn-sphotos-c-a.akamaihd.net/hphotos-ak-xap1/v/t1.0-9/s720x720/1236048_10151997549666055_531813707_n.jpg?oh=fd968165863eaf433cc06462636fa060&oe=55930F73&__gda__=1435784879_f5b5c65733fd93115f41fc3b9069751e
p469
sg4
VA happy first day of class for the freshmen751e
p470
sa(dp471
g2
Vhttps://fbcdn-sphotos-b-a.akamaihd.net/hphotos-ak-prn2/t31.0-8/s720x720/1077425_10151955936521055_1218970942_o.jpg
p472
sg4
VGonna miss this place.jpg
p473
sa(dp474
g2
Vhttps://scontent-a.xx.fbcdn.net/hphotos-prn2/t31.0-8/s720x720/1091006_10151950779876055_440952832_o.jpg
p475
sg4
VPine Bluff.jpg
p476
sa(dp477
g2
Vhttps://fbcdn-sphotos-e-a.akamaihd.net/hphotos-ak-ash2/t31.0-8/p180x540/1146883_10151950779701055_311392294_o.jpg
p478
sg4
V1146883_10151950779701055_311392294_o.jpg
p479
sa(dp480
g2
Vhttps://fbcdn-sphotos-f-a.akamaihd.net/hphotos-ak-ash2/t31.0-8/p180x540/1093757_10151950779466055_258037963_o.jpg
p481
sg4
V1093757_10151950779466055_258037963_o.jpg
p482
sa(dp483
g2
Vhttps://scontent-b.xx.fbcdn.net/hphotos-xap1/t31.0-8/p180x540/1094648_10151950778651055_1996908610_o.jpg
p484
sg4
V1094648_10151950778651055_1996908610_o.jpg
p485
sa(dp486
g2
Vhttps://scontent-b.xx.fbcdn.net/hphotos-xpf1/t31.0-8/s720x720/616373_10151950776876055_610699949_o.jpg
p487
sg4
V616373_10151950776876055_610699949_o.jpg
p488
sa(dp489
g2
Vhttps://fbcdn-sphotos-h-a.akamaihd.net/hphotos-ak-prn2/t31.0-8/s720x720/1077356_10151950776011055_811509556_o.jpg
p490
sg4
V1077356_10151950776011055_811509556_o.jpg
p491
sa(dp492
g2
Vhttps://scontent-a.xx.fbcdn.net/hphotos-prn2/t31.0-8/p180x540/1082239_10151950775766055_1020317581_o.jpg
p493
sg4
V1082239_10151950775766055_1020317581_o.jpg
p494
sa(dp495
g2
Vhttps://fbcdn-sphotos-c-a.akamaihd.net/hphotos-ak-xaf1/t31.0-8/p180x540/194045_10151950775621055_747346132_o.jpg
p496
sg4
V194045_10151950775621055_747346132_o.jpg
p497
sa(dp498
g2
Vhttps://fbcdn-sphotos-a-a.akamaihd.net/hphotos-ak-ash2/t31.0-8/q84/s720x720/1146380_10151950775446055_206647587_o.jpg
p499
sg4
Vtimberleeweek7.jpg
p500
sa(dp501
g2
Vhttps://scontent-a.xx.fbcdn.net/hphotos-prn2/t31.0-8/s720x720/1052459_10151950775251055_1939806837_o.jpg
p502
sg4
V1052459_10151950775251055_1939806837_o.jpg
p503
sa(dp504
g2
Vhttps://fbcdn-sphotos-d-a.akamaihd.net/hphotos-ak-prn2/t31.0-8/s720x720/1097668_10151950775111055_1320537451_o.jpg
p505
sg4
V1097668_10151950775111055_1320537451_o.jpg
p506
sa(dp507
g2
Vhttps://scontent-b.xx.fbcdn.net/hphotos-frc3/t31.0-8/p180x540/1146259_10151950774931055_1637376258_o.jpg
p508
sg4
V1146259_10151950774931055_1637376258_o.jpg
p509
sa(dp510
g2
Vhttps://scontent-a.xx.fbcdn.net/hphotos-frc3/t31.0-8/p180x540/458544_10151950774821055_336934999_o.jpg
p511
sg4
V458544_10151950774821055_336934999_o.jpg
p512
sa(dp513
g2
Vhttps://scontent-a.xx.fbcdn.net/hphotos-xaf1/t31.0-8/p180x540/242238_10151950774611055_212655452_o.jpg
p514
sg4
V242238_10151950774611055_212655452_o.jpg
p515
sa(dp516
g2
Vhttps://scontent-a.xx.fbcdn.net/hphotos-ash2/l/t31.0-8/s720x720/1146345_10151950774376055_990008825_o.jpg
p517
sg4
V1146345_10151950774376055_990008825_o.jpg
p518
sa(dp519
g2
Vhttps://scontent-a.xx.fbcdn.net/hphotos-prn2/t31.0-8/p180x540/1097847_10151950774236055_661393158_o.jpg
p520
sg4
V1097847_10151950774236055_661393158_o.jpg
p521
sa(dp522
g2
Vhttps://fbcdn-sphotos-f-a.akamaihd.net/hphotos-ak-xfa1/t31.0-8/p480x480/463668_10151950773976055_1792448708_o.jpg
p523
sg4
Vtimberleeweek6.jpg
p524
sa(dp525
g2
Vhttps://scontent-b.xx.fbcdn.net/hphotos-ash2/t31.0-8/p180x540/922094_10151950773806055_1059784636_o.jpg
p526
sg4
V922094_10151950773806055_1059784636_o.jpg
p527
sa(dp528
g2
Vhttps://fbcdn-sphotos-b-a.akamaihd.net/hphotos-ak-frc3/t31.0-8/s720x720/1094554_10151950773716055_488403062_o.jpg
p529
sg4
V1094554_10151950773716055_488403062_o.jpg
p530
sa(dp531
g2
Vhttps://scontent-b.xx.fbcdn.net/hphotos-xfp1/t31.0-8/p180x540/1075570_10151950773551055_1980532575_o.jpg
p532
sg4
V1075570_10151950773551055_1980532575_o.jpg
p533
sa(dp534
g2
Vhttps://fbcdn-sphotos-a-a.akamaihd.net/hphotos-ak-xpa1/t31.0-8/s720x720/1078922_10151950773406055_1556578099_o.jpg
p535
sg4
Vtimberleeweek5.jpg
p536
sa(dp537
g2
Vhttps://scontent-a.xx.fbcdn.net/hphotos-prn2/t31.0-8/p180x540/1097879_10151950773251055_1126027065_o.jpg
p538
sg4
V1097879_10151950773251055_1126027065_o.jpg
p539
sa(dp540
g2
Vhttps://scontent-b.xx.fbcdn.net/hphotos-xpa1/t31.0-8/p180x540/131843_10151950773091055_181411291_o.jpg
p541
sg4
V131843_10151950773091055_181411291_o.jpg
p542
sa(dp543
g2
Vhttps://scontent-b.xx.fbcdn.net/hphotos-prn2/t31.0-8/s720x720/1076998_10151950772936055_2015692810_o.jpg
p544
sg4
V1076998_10151950772936055_2015692810_o.jpg
p545
sa(dp546
g2
Vhttps://scontent-b.xx.fbcdn.net/hphotos-xap1/t31.0-8/p180x540/1102744_10151950772736055_1775496509_o.jpg
p547
sg4
V1102744_10151950772736055_1775496509_o.jpg
p548
sa(dp549
g2
Vhttps://fbcdn-sphotos-f-a.akamaihd.net/hphotos-ak-xap1/t31.0-8/q81/p180x540/131855_10151950772596055_861489878_o.jpg
p550
sg4
V131855_10151950772596055_861489878_o.jpg
p551
sa(dp552
g2
Vhttps://fbcdn-sphotos-g-a.akamaihd.net/hphotos-ak-xfp1/t31.0-8/s720x720/981306_10151950772406055_1097022032_o.jpg
p553
sg4
Vtimberleeweek4.jpg
p554
sa(dp555
g2
Vhttps://scontent-a.xx.fbcdn.net/hphotos-prn2/t31.0-8/s720x720/1102471_10151950772116055_691726128_o.jpg
p556
sg4
V1102471_10151950772116055_691726128_o.jpg
p557
sa(dp558
g2
Vhttps://fbcdn-sphotos-c-a.akamaihd.net/hphotos-ak-frc3/t31.0-8/p180x540/1097779_10151950771991055_463074922_o.jpg
p559
sg4
V1097779_10151950771991055_463074922_o.jpg
p560
sa(dp561
g2
Vhttps://scontent-a.xx.fbcdn.net/hphotos-frc3/t31.0-8/p180x540/1102582_10151950771866055_2102464464_o.jpg
p562
sg4
V1102582_10151950771866055_2102464464_o.jpg
p563
sa(dp564
g2
Vhttps://fbcdn-sphotos-b-a.akamaihd.net/hphotos-ak-prn2/t31.0-8/p180x540/1077512_10151950771741055_1411243273_o.jpg
p565
sg4
V1077512_10151950771741055_1411243273_o.jpg
p566
sa(dp567
g2
Vhttps://scontent-b.xx.fbcdn.net/hphotos-prn2/l/t31.0-8/s720x720/1094036_10151950771516055_426006034_o.jpg
p568
sg4
Vtimberleeweek3.jpg
p569
sa(dp570
g2
Vhttps://scontent-a.xx.fbcdn.net/hphotos-xpa1/t31.0-8/q83/p180x540/1085005_10151950771221055_1401992050_o.jpg
p571
sg4
V1085005_10151950771221055_1401992050_o.jpg
p572
sa(dp573
g2
Vhttps://scontent-a.xx.fbcdn.net/hphotos-xaf1/t31.0-8/p180x540/664792_10151950770921055_1498614548_o.jpg
p574
sg4
V664792_10151950770921055_1498614548_o.jpg
p575
sa(dp576
g2
Vhttps://fbcdn-sphotos-c-a.akamaihd.net/hphotos-ak-prn2/t31.0-8/p180x540/1009487_10151950770646055_868326431_o.jpg
p577
sg4
V1009487_10151950770646055_868326431_o.jpg
p578
sa(dp579
g2
Vhttps://scontent-a.xx.fbcdn.net/hphotos-ash2/t31.0-8/p180x540/1094642_10151950770526055_1919195092_o.jpg
p580
sg4
V1094642_10151950770526055_1919195092_o.jpg
p581
sa(dp582
g2
Vhttps://fbcdn-sphotos-h-a.akamaihd.net/hphotos-ak-xpf1/t31.0-8/p180x540/1078586_10151950770351055_1798755952_o.jpg
p583
sg4
V1078586_10151950770351055_1798755952_o.jpg
p584
sa(dp585
g2
Vhttps://fbcdn-sphotos-b-a.akamaihd.net/hphotos-ak-prn2/t31.0-8/s720x720/1096943_10151950770156055_1760362835_o.jpg
p586
sg4
V1096943_10151950770156055_1760362835_o.jpg
p587
sa(dp588
g2
Vhttps://scontent-b.xx.fbcdn.net/hphotos-xap1/t31.0-8/q83/s720x720/1780130_10151950769911055_880391338_o.jpg
p589
sg4
Vtimberleeweek2.jpg
p590
sa(dp591
g2
Vhttps://scontent-b.xx.fbcdn.net/hphotos-prn2/t31.0-8/s720x720/1147107_10151950769661055_220383674_o.jpg
p592
sg4
V1147107_10151950769661055_220383674_o.jpg
p593
sa(dp594
g2
Vhttps://fbcdn-sphotos-g-a.akamaihd.net/hphotos-ak-prn2/t31.0-8/p180x540/1120063_10151950769531055_217815110_o.jpg
p595
sg4
V1120063_10151950769531055_217815110_o.jpg
p596
sa(dp597
g2
Vhttps://scontent-a.xx.fbcdn.net/hphotos-ash2/t31.0-8/p180x540/1077880_10151950769336055_1076577749_o.jpg
p598
sg4
V1077880_10151950769336055_1076577749_o.jpg
p599
sa(dp600
g2
Vhttps://fbcdn-sphotos-b-a.akamaihd.net/hphotos-ak-prn2/t31.0-8/s720x720/1146311_10151950769216055_383004915_o.jpg
p601
sg4
V1146311_10151950769216055_383004915_o.jpg
p602
sa(dp603
g2
Vhttps://scontent-b.xx.fbcdn.net/hphotos-xpf1/t31.0-8/p180x540/1093846_10151950769151055_1614742724_o.jpg
p604
sg4
V1093846_10151950769151055_1614742724_o.jpg
p605
sa(dp606
g2
Vhttps://scontent-b.xx.fbcdn.net/hphotos-ash2/t31.0-8/q81/s720x720/1093879_10151950768951055_1240177835_o.jpg
p607
sg4
V1093879_10151950768951055_1240177835_o.jpg
p608
sa(dp609
g2
Vhttps://fbcdn-sphotos-d-a.akamaihd.net/hphotos-ak-xpf1/t31.0-8/q83/s720x720/1093896_10151950768811055_1630723918_o.jpg
p610
sg4
V1093896_10151950768811055_1630723918_o.jpg
p611
sa(dp612
g2
Vhttps://scontent-a.xx.fbcdn.net/hphotos-prn2/t31.0-8/s720x720/1077318_10151950768711055_2038961345_o.jpg
p613
sg4
V1077318_10151950768711055_2038961345_o.jpg
p614
sa(dp615
g2
Vhttps://fbcdn-sphotos-g-a.akamaihd.net/hphotos-ak-xap1/t31.0-8/q83/p180x540/1048120_10151950768616055_222168865_o.jpg
p616
sg4
V1048120_10151950768616055_222168865_o.jpg
p617
sa(dp618
g2
Vhttps://fbcdn-sphotos-e-a.akamaihd.net/hphotos-ak-ash2/t31.0-8/q81/s720x720/921047_10151950768416055_1232979099_o.jpg
p619
sg4
Vtimberleeweek1.jpg
p620
sa(dp621
g2
Vhttps://scontent-a.xx.fbcdn.net/hphotos-xap1/t31.0-8/s720x720/1077073_10151950768261055_836160537_o.jpg
p622
sg4
V1077073_10151950768261055_836160537_o.jpg
p623
sa(dp624
g2
Vhttps://scontent-b.xx.fbcdn.net/hphotos-xpa1/t31.0-8/q81/p180x540/1079038_10151950768111055_588246698_o.jpg
p625
sg4
V1079038_10151950768111055_588246698_o.jpg
p626
sa(dp627
g2
Vhttps://scontent-b.xx.fbcdn.net/hphotos-frc3/t31.0-8/p180x540/1077162_10151950767986055_1458649258_o.jpg
p628
sg4
V1077162_10151950767986055_1458649258_o.jpg
p629
sa(dp630
g2
Vhttps://scontent-a.xx.fbcdn.net/hphotos-xaf1/t31.0-8/s720x720/1079033_10151950767841055_1854475808_o.jpg
p631
sg4
V1079033_10151950767841055_1854475808_o.jpg
p632
sa(dp633
g2
Vhttps://fbcdn-sphotos-g-a.akamaihd.net/hphotos-ak-ash2/t31.0-8/p180x540/1078806_10151950767611055_447046563_o.jpg
p634
sg4
V1078806_10151950767611055_447046563_o.jpg
p635
sa(dp636
g2
Vhttps://scontent-a.xx.fbcdn.net/hphotos-frc3/t31.0-8/p180x540/1048999_10151895069776055_137810789_o.jpg
p637
sg4
VI can do nothing more than to reflect the Truth to these kids so they may run into His marvelous Li.jpg
p638
sa(dp639
g2
Vhttps://fbcdn-sphotos-h-a.akamaihd.net/hphotos-ak-xfa1/v/t1.0-9/s720x720/417872_10151802382446055_396358549_n.jpg?oh=940aff7657f3f28be2ae0f5b70276852&oe=555A8D36&__gda__=1431454566_00672457f27771fa04398ad114758d0f
p640
sg4
VAnd the sun has gone8d0f
p641
sa(dp642
g2
Vhttps://fbcdn-sphotos-a-a.akamaihd.net/hphotos-ak-xaf1/v/t1.0-9/s720x720/263211_10151802381761055_387184107_n.jpg?oh=84f0d72c97c66a734b62eb33a4317486&oe=5566074A&__gda__=1431544372_b07e6aeeb184254badc6c6b4ac3d85c2
p643
sg4
VA sunset picnic in the park85c2
p644
sa(dp645
g2
Vhttps://fbcdn-sphotos-h-a.akamaihd.net/hphotos-ak-xpa1/t31.0-8/q90/s720x720/964458_10151800432116055_206285708_o.jpg
p646
sg4
Vsomeone didnt fully check out their room.jpg
p647
sa(dp648
g2
Vhttps://fbcdn-sphotos-b-a.akamaihd.net/hphotos-ak-frc3/t31.0-8/p180x540/919948_10151800431971055_1542940530_o.jpg
p649
sg4
V919948_10151800431971055_1542940530_o.jpg
p650
sa(dp651
g2
Vhttps://fbcdn-sphotos-d-a.akamaihd.net/hphotos-ak-xfa1/t31.0-8/p180x540/1026031_10151800431821055_885793596_o.jpg
p652
sg4
V1026031_10151800431821055_885793596_o.jpg
p653
sa(dp654
g2
Vhttps://fbcdn-sphotos-a-a.akamaihd.net/hphotos-ak-xap1/t31.0-8/s720x720/922278_10151800431676055_804595772_o.jpg
p655
sg4
V922278_10151800431676055_804595772_o.jpg
p656
sa(dp657
g2
Vhttps://fbcdn-sphotos-g-a.akamaihd.net/hphotos-ak-xap1/t31.0-8/s720x720/919800_10151800431496055_256066706_o.jpg
p658
sg4
V919800_10151800431496055_256066706_o.jpg
p659
sa(dp660
g2
Vhttps://scontent-b.xx.fbcdn.net/hphotos-xpf1/t31.0-8/s720x720/977555_10151800431346055_536243816_o.jpg
p661
sg4
V977555_10151800431346055_536243816_o.jpg
p662
sa(dp663
g2
Vhttps://scontent-b.xx.fbcdn.net/hphotos-xpa1/t31.0-8/p180x540/978002_10151800431216055_2017016945_o.jpg
p664
sg4
Vholy molynotable burger there.jpg
p665
sa(dp666
g2
Vhttps://scontent-b.xx.fbcdn.net/hphotos-xpf1/t31.0-8/s720x720/976728_10151800430996055_134401704_o.jpg
p667
sg4
Vwill be sad to leave this place.jpg
p668
sa(dp669
g2
Vhttps://fbcdn-sphotos-a-a.akamaihd.net/hphotos-ak-xfp1/t31.0-8/q85/s720x720/976362_10151800430831055_1518144034_o.jpg
p670
sg4
Vwhen i walk into my room.jpg
p671
sa(dp672
g2
Vhttps://scontent-a.xx.fbcdn.net/hphotos-xfp1/t31.0-8/p180x540/921153_10151800430681055_1783511256_o.jpg
p673
sg4
VC3 cupcake time.jpg
p674
sa(dp675
g2
Vhttps://scontent-a.xx.fbcdn.net/hphotos-xap1/t31.0-8/s720x720/977421_10151800430521055_1371465126_o.jpg
p676
sg4
V977421_10151800430521055_1371465126_o.jpg
p677
sa(dp678
g2
Vhttps://scontent-b.xx.fbcdn.net/hphotos-xpf1/t31.0-8/q92/s720x720/966378_10151800430366055_347613508_o.jpg
p679
sg4
V966378_10151800430366055_347613508_o.jpg
p680
sa(dp681
g2
Vhttps://scontent-a.xx.fbcdn.net/hphotos-xfp1/t31.0-8/p180x540/976698_10151800430271055_1000261167_o.jpg
p682
sg4
Vfloor bulletin board.jpg
p683
sa(dp684
g2
Vhttps://fbcdn-sphotos-e-a.akamaihd.net/hphotos-ak-frc3/t31.0-8/p180x540/919686_10151800430121055_1484401421_o.jpg
p685
sg4
VAndy Grammer.jpg
p686
sa(dp687
g2
Vhttps://scontent-a.xx.fbcdn.net/hphotos-xfp1/t31.0-8/q83/s720x720/976728_10151800429936055_223920227_o.jpg
p688
sg4
Vintense.jpg
p689
sa(dp690
g2
Vhttps://scontent-b.xx.fbcdn.net/hphotos-xpf1/l/t31.0-8/p180x540/921067_10151800429806055_1323711494_o.jpg
p691
sg4
Vballoon head lady-lololol.jpg
p692
sa(dp693
g2
Vhttps://scontent-b.xx.fbcdn.net/hphotos-ash2/t31.0-8/q85/s720x720/919941_10151800429641055_109690362_o.jpg
p694
sg4
Vthe best ECE major.jpg
p695
sa(dp696
g2
Vhttps://scontent-a.xx.fbcdn.net/hphotos-xfp1/t31.0-8/p180x540/976868_10151800429551055_452573039_o.jpg
p697
sg4
Veaster brunch at Annikas.jpg
p698
sa(dp699
g2
Vhttps://scontent-b.xx.fbcdn.net/hphotos-xpa1/t31.0-8/p180x540/964948_10151800429426055_263197525_o.jpg
p700
sg4
Vbest concert of my life.jpg
p701
sa(dp702
g2
Vhttps://scontent-b.xx.fbcdn.net/hphotos-xpa1/l/t31.0-8/q92/s720x720/965114_10151800429281055_795557584_o.jpg
p703
sg4
VCollege Level 2100 complete.jpg
p704
sa(dp705
g2
Vhttps://scontent-b.xx.fbcdn.net/hphotos-xfa1/t31.0-8/s720x720/458900_10151800429161055_1035515784_o.jpg
p706
sg4
Vcarnival.jpg
p707
sa(dp708
g2
Vhttps://fbcdn-sphotos-a-a.akamaihd.net/hphotos-ak-xap1/t31.0-8/s720x720/976330_10151800429081055_1922837231_o.jpg
p709
sg4
V976330_10151800429081055_1922837231_o.jpg
p710
sa(dp711
g2
Vhttps://scontent-a.xx.fbcdn.net/hphotos-xap1/t31.0-8/p180x540/977127_10151800428931055_291762018_o.jpg
p712
sg4
Vgot to love reading this stuff  DECE 3.jpg
p713
sa(dp714
g2
Vhttps://scontent-a.xx.fbcdn.net/hphotos-xap1/t31.0-8/q81/s720x720/977830_10151800428841055_1689114473_o.jpg
p715
sg4
V977830_10151800428841055_1689114473_o.jpg
p716
sa(dp717
g2
Vhttps://scontent-a.xx.fbcdn.net/hphotos-frc3/t31.0-8/p180x540/901179_10151800428746055_1831583350_o.jpg
p718
sg4
VAlexa Goetzs creations.jpg
p719
sa(dp720
g2
Vhttps://scontent-b.xx.fbcdn.net/hphotos-xpa1/t31.0-8/s720x720/976940_10151800428506055_1520459006_o.jpg
p721
sg4
VBuild 18 times with Aaron  ).jpg
p722
sa(dp723
g2
Vhttps://scontent-a.xx.fbcdn.net/hphotos-xap1/t31.0-8/p180x540/919754_10151800428191055_1634808827_o.jpg
p724
sg4
V919754_10151800428191055_1634808827_o.jpg
p725
sa(dp726
g2
Vhttps://scontent-a.xx.fbcdn.net/hphotos-xaf1/t31.0-8/p180x540/458799_10151800428111055_523281834_o.jpg
p727
sg4
V458799_10151800428111055_523281834_o.jpg
p728
sa(dp729
g2
Vhttps://fbcdn-sphotos-g-a.akamaihd.net/hphotos-ak-xpf1/t31.0-8/s720x720/279411_10151800428021055_2069426867_o.jpg
p730
sg4
VMy signals lab-pretty graph.jpg
p731
sa(dp732
g2
Vhttps://scontent-a.xx.fbcdn.net/hphotos-xap1/t31.0-8/s720x720/976119_10151800427941055_1531347415_o.jpg
p733
sg4
V976119_10151800427941055_1531347415_o.jpg
p734
sa(dp735
g2
Vhttps://scontent-b.xx.fbcdn.net/hphotos-frc3/t31.0-8/s720x720/901078_10151800427716055_1196623414_o.jpg
p736
sg4
Vfound in the CS building.jpg
p737
sa(dp738
g2
Vhttps://fbcdn-sphotos-h-a.akamaihd.net/hphotos-ak-xpa1/v/t1.0-9/s720x720/943153_10151797396051055_499561677_n.jpg?oh=a0835d24a9a3bdaa31f3052682459c31&oe=554AC46B&__gda__=1431408982_0f40fd4ad2789cbe0b4a8bf14b89c959
p739
sg4
V943153_10151797396051055_499561677_n.jpg?oh=a0835d24a9a3bdaa31f3052682459c31&oe=554AC46B&__gda__=1431408982_0f40fd4ad2789cbe0b4a8bf14b89c959
p740
sa(dp741
g2
Vhttps://fbcdn-sphotos-b-a.akamaihd.net/hphotos-ak-xpf1/v/t1.0-9/s720x720/935268_10151797395986055_394697975_n.jpg?oh=a8c3baa1911186217c9c49d18aedaed1&oe=556834E9&__gda__=1432873000_9cc990557259eddd7d42d982a72639c1
p742
sg4
V935268_10151797395986055_394697975_n.jpg?oh=a8c3baa1911186217c9c49d18aedaed1&oe=556834E9&__gda__=1432873000_9cc990557259eddd7d42d982a72639c1
p743
sa(dp744
g2
Vhttps://fbcdn-sphotos-c-a.akamaihd.net/hphotos-ak-xaf1/t31.0-8/s720x720/459418_10151777438361055_521647596_o.jpg
p745
sg4
VWe were too excited for words  Andy Grammer is simply the best.jpg
p746
sa(dp747
g2
Vhttps://fbcdn-sphotos-b-a.akamaihd.net/hphotos-ak-ash2/v/t1.0-9/s720x720/602144_10151714161201055_519942133_n.jpg?oh=051c4896acad51b857eb4beaa7725552&oe=559263BA&__gda__=1431633211_3c6bab476259ff8b0211c2d49cd73e52
p748
sg4
VAww Pittsburgh youre so beautiful today3e52
p749
sa(dp750
g2
Vhttps://fbcdn-sphotos-g-a.akamaihd.net/hphotos-ak-xap1/v/t1.0-9/p180x540/555149_10151692687221055_641285015_n.jpg?oh=c8a98321e7850a4966102bf2eed78442&oe=55663ED4&__gda__=1430988957_0b841c00aece1c6fae5132293385bce5
p751
sg4
VMist homebce5
p752
sa(dp753
g2
Vhttps://fbcdn-sphotos-a-a.akamaihd.net/hphotos-ak-xpa1/v/t1.0-9/p180x540/5623_10151692687171055_165700731_n.jpg?oh=0491e9a176c04adec4b3279b730476f5&oe=5553B4CB&__gda__=1431575990_44338ea89f20b7aaaf5e2bb79255aefe
p754
sg4
VMist homeaefe
p755
sa(dp756
g2
Vhttps://fbcdn-sphotos-g-a.akamaihd.net/hphotos-ak-prn2/v/t1.0-9/p180x540/47029_10151654031591055_1953612157_n.jpg?oh=e2340abb452913a6db24546366b5b6bc&oe=5553F577&__gda__=1432143774_473ef5baca7f5ed63a2bacb03a2213fb
p757
sg4
VMy favorite kind of snow-the fluffy floating kind   )13fb
p758
sa(dp759
g2
Vhttps://scontent-a.xx.fbcdn.net/hphotos-xaf1/v/t1.0-9/427994_10151579997681055_661688164_n.jpg?oh=4e9ba889c2c4e803c39e44174705e33b&oe=55517055
p760
sg4
VI sometimes catch myself gazing out the window  Theres beauty in the everyday sunshine7055
p761
sa(dp762
g2
Vhttps://fbcdn-sphotos-a-a.akamaihd.net/hphotos-ak-ash2/v/t1.0-9/p720x720/252631_10151579994951055_61156253_n.jpg?oh=f3ee0d20496134743645710ab48010d5&oe=55532DDC&__gda__=1432901446_f9dee5b1b2043c6afe018f45e0ac2a04
p763
sg4
VBasically the best White Elephant giftfrom Mariana2a04
p764
sa(dp765
g2
Vhttps://fbcdn-sphotos-f-a.akamaihd.net/hphotos-ak-xfa1/v/t1.0-9/s720x720/431281_10151555306241055_1449867425_n.jpg?oh=1ce9be73d1b6cc50cd5d7bb09f1b0d9d&oe=5559A758&__gda__=1432257390_c7840c348840d366bcaf8c94b7b11c0c
p766
sg4
VA sunset view and bridgesa warm welcome back to Pittsburgh1c0c
p767
sa(dp768
g2
Vhttps://scontent-a.xx.fbcdn.net/hphotos-xfa1/v/t1.0-9/s720x720/63628_10151542658041055_704434282_n.jpg?oh=069228cf7d807978a366257e170548aa&oe=555236BC
p769
sg4
VSome more pics from the fall semester36BC
p770
sa(dp771
g2
Vhttps://scontent-a.xx.fbcdn.net/hphotos-xpa1/v/l/t1.0-9/s720x720/13676_10151542657661055_413560612_n.jpg?oh=52c959c3f1e97851001c33f2b5974af1&oe=55633EA9
p772
sg4
VSome more pics from the fall semester3EA9
p773
sa(dp774
g2
Vhttps://scontent-b.xx.fbcdn.net/hphotos-frc3/v/t1.0-9/p180x540/537957_10151542657656055_1469662849_n.jpg?oh=0f70674f6b6ff788b11f38e1cbb4343a&oe=555334B0
p775
sg4
VSome more pics from the fall semester34B0
p776
sa(dp777
g2
Vhttps://fbcdn-sphotos-e-a.akamaihd.net/hphotos-ak-xaf1/v/t1.0-9/s720x720/321018_10151542657651055_620725493_n.jpg?oh=c5ff9c95eb81ba08fe5e467d946a49d0&oe=55672614&__gda__=1435825514_82a0862a70a44b08e97f5e1e3b7150c6
p778
sg4
VSome more pics from the fall semester50c6
p779
sa(dp780
g2
Vhttps://scontent-a.xx.fbcdn.net/hphotos-prn2/v/t1.0-9/s720x720/249863_10151542657636055_1727057803_n.jpg?oh=5928cf5c22ca2013326490161ed9c6de&oe=5592B41F
p781
sg4
VSome more pics from the fall semesterB41F
p782
sa(dp783
g2
Vhttps://fbcdn-sphotos-b-a.akamaihd.net/hphotos-ak-xfa1/v/t1.0-9/s720x720/407801_10151542657631055_1035308272_n.jpg?oh=b8503524503f08f96a430a4d8a6af43d&oe=55934621&__gda__=1432856599_fa8b90a18383c2fb571a863522248d0e
p784
sg4
VSome more pics from the fall semester8d0e
p785
sa(dp786
g2
Vhttps://scontent-b.xx.fbcdn.net/hphotos-xfa1/v/t1.0-9/s720x720/154426_10151542657206055_358409671_n.jpg?oh=1694b35bf97c1a58e2be6ac540abbc70&oe=55938AE9
p787
sg4
VSome more pics from the fall semester8AE9
p788
sa(dp789
g2
Vhttps://fbcdn-sphotos-a-a.akamaihd.net/hphotos-ak-xaf1/v/t1.0-9/603306_10151542657201055_1076457911_n.jpg?oh=eca9ac81148910b85b19e553c1de7ad2&oe=555FB693&__gda__=1432481816_04c517599be6ec1355f4f4eec8138dfd
p790
sg4
VSome more pics from the fall semester8dfd
p791
sa(dp792
g2
Vhttps://scontent-a.xx.fbcdn.net/hphotos-xaf1/v/t1.0-9/s720x720/23717_10151542657191055_996356414_n.jpg?oh=b547b1e4fbe247f8f9a67ba8689be46c&oe=5566FC09
p793
sg4
VSome more pics from the fall semesterFC09
p794
sa(dp795
g2
Vhttps://scontent-a.xx.fbcdn.net/hphotos-xaf1/v/t1.0-9/s720x720/540825_10151542657186055_944048379_n.jpg?oh=9463f282972eb62e914ad6b752b7d059&oe=554D7D4A
p796
sg4
VSome more pics from the fall semester7D4A
p797
sa(dp798
g2
Vhttps://fbcdn-sphotos-c-a.akamaihd.net/hphotos-ak-xaf1/v/t1.0-9/s720x720/165080_10151542657181055_2139274525_n.jpg?oh=e3322da35e5b32588fea983bcaa343a5&oe=55488AF7&__gda__=1435691334_dfe6759b320a739bc5d36fd82635e75d
p799
sg4
VSome more pics from the fall semestere75d
p800
sa(dp801
g2
Vhttps://scontent-b.xx.fbcdn.net/hphotos-xfa1/v/t1.0-9/s720x720/270276_10151542645511055_123996439_n.jpg?oh=c4916e860b9f9f752d64b916bc6014ca&oe=5557C236
p802
sg4
VThe inside of the dome at Passion looks like a UFOC236
p803
sa(dp804
g2
Vhttps://scontent-b.xx.fbcdn.net/hphotos-prn2/v/t1.0-9/543903_10151541872276055_700329690_n.jpg?oh=d751e687d4a9b301418748f8a1ede83f&oe=5550468C
p805
sg4
VNew iPhone picture editor-heres some snazzy ones D468C
p806
sa(dp807
g2
Vhttps://scontent-b.xx.fbcdn.net/hphotos-ash2/v/t1.0-9/p180x540/551171_10151541872261055_1425611169_n.jpg?oh=6f5c8691ded71c44f65fc7cca4acd1d2&oe=5595BD24
p808
sg4
VNew iPhone picture editor-heres some snazzy ones DBD24
p809
sa(dp810
g2
Vhttps://fbcdn-sphotos-c-a.akamaihd.net/hphotos-ak-xap1/v/t1.0-9/p180x540/68654_10151541872281055_945448819_n.jpg?oh=c070634aa1e65286a047cb16a0b10e7d&oe=55958719&__gda__=1430950884_8c11338c9d17b40a491f8f796df14c0b
p811
sg4
VNew iPhone picture editor-heres some snazzy ones D4c0b
p812
sa(dp813
g2
Vhttps://fbcdn-sphotos-e-a.akamaihd.net/hphotos-ak-xaf1/v/t1.0-9/393013_10151541872271055_1481640766_n.jpg?oh=40c2ebddb4d11dd1f4104466fe53ab97&oe=555BA2B3&__gda__=1432146488_17ac91e2df90718de30a7d3d3bcfb3f6
p814
sg4
VNew iPhone picture editor-heres some snazzy ones Db3f6
p815
sa(dp816
g2
Vhttps://fbcdn-sphotos-d-a.akamaihd.net/hphotos-ak-xfa1/v/t1.0-9/s720x720/385193_10151541872266055_362576208_n.jpg?oh=216ca7ab96c609b42ec95d7319dd2151&oe=5566B224&__gda__=1432453492_5f47384e6f72532204c37261a8bfe393
p817
sg4
VNew iPhone picture editor-heres some snazzy ones De393
p818
sa(dp819
g2
Vhttps://scontent-a.xx.fbcdn.net/hphotos-xaf1/v/t1.0-9/423671_10151541869981055_1804735488_n.jpg?oh=c616a9e7ac87363c1cf5ae2e87f4ea4f&oe=554FDB05
p820
sg4
VNew iPhone picture editor-heres some snazzy ones DDB05
p821
sa(dp822
g2
Vhttps://scontent-b.xx.fbcdn.net/hphotos-xfa1/v/t1.0-9/307611_10151541869976055_1291058935_n.jpg?oh=0c2e44f7259d2b592d5e1164f572b27c&oe=55508EAB
p823
sg4
VNew iPhone picture editor-heres some snazzy ones D8EAB
p824
sa(dp825
g2
Vhttps://fbcdn-sphotos-a-a.akamaihd.net/hphotos-ak-xap1/v/t1.0-9/p180x540/68633_10151541869971055_1827545882_n.jpg?oh=6c71d89b0cb784bc269c932ace765092&oe=555DC056&__gda__=1435844383_af9649a664b8be06cd150104ff0adb1b
p826
sg4
VNew iPhone picture editor-heres some snazzy ones Ddb1b
p827
sa(dp828
g2
Vhttps://fbcdn-sphotos-d-a.akamaihd.net/hphotos-ak-xfa1/v/t1.0-9/p180x540/574878_10151541869961055_2027441386_n.jpg?oh=0a16446a9637de1071889519f9cede33&oe=5552D4B1&__gda__=1431918727_4d16cae7d186a21438c3f292fca132ac
p829
sg4
VNew iPhone picture editor-heres some snazzy ones D32ac
p830
sa(dp831
g2
Vhttps://scontent-a.xx.fbcdn.net/hphotos-frc3/v/t1.0-9/p180x540/543786_10151541869966055_1875522430_n.jpg?oh=2f307e0b1348b0662d0f05102e62753c&oe=55971A6F
p832
sg4
VNew iPhone picture editor-heres some snazzy ones D1A6F
p833
sa(dp834
g2
Vhttps://scontent-b.xx.fbcdn.net/hphotos-xpf1/t31.0-8/p180x540/736106_10151539844146055_1407438865_o.jpg
p835
sg4
VThe Wisconsin Wisconsin Mac and Cheese from Noodlesmmm mmm mmmmm.jpg
p836
sa(dp837
g2
Vhttps://fbcdn-sphotos-c-a.akamaihd.net/hphotos-ak-ash2/v/t1.0-9/p180x540/564060_10151531760741055_1953397117_n.jpg?oh=88368bd9785fabe79f36e5b83021a5dd&oe=5550E0C0&__gda__=1432116940_0af3f235c6eb0f7c6e9b2b54f2c5f188
p838
sg4
VSnowed inf188
p839
sa(dp840
g2
Vhttps://fbcdn-sphotos-c-a.akamaihd.net/hphotos-ak-xaf1/v/t1.0-9/380705_10151528731021055_818995737_n.jpg?oh=28eb7cbc78fd94cfe6a719615f86201a&oe=554F29D7&__gda__=1432500740_1821d7a084e8be1aae43820183bac4f8
p841
sg4
VI must be so lovedI mean liked cough Aaron Vivek coughc4f8
p842
sa(dp843
g2
Vhttps://scontent-a.xx.fbcdn.net/hphotos-xaf1/v/t1.0-9/425483_10151528727316055_1322753777_n.jpg?oh=11ab9af83aab71aa79ea2805a41da91b&oe=55611EAA
p844
sg4
VI must be so lovedI mean likedcough Aaron Vivek cough1EAA
p845
sa(dp846
g2
Vhttps://scontent-a.xx.fbcdn.net/hphotos-xaf1/v/t1.0-9/181835_10151524313001055_1593004896_n.jpg?oh=8cb5e5927ec522655a0d3e2968bfeac6&oe=55650B26
p847
sg4
VBottom right-the legend of calculus0B26
p848
sa(dp849
g2
Vhttps://scontent-a.xx.fbcdn.net/hphotos-xfp1/v/t1.0-9/p180x540/406923_10151448850806055_2007152739_n.jpg?oh=0f3aaf2c5c3a9d10227bbd059dddd34d&oe=5594FE63
p850
sg4
VBlair scareFE63
p851
sa(dp852
g2
Vhttps://fbcdn-sphotos-a-a.akamaihd.net/hphotos-ak-xfp1/v/t1.0-9/s720x720/379155_10151448850586055_1192183523_n.jpg?oh=b7df2d719c2ed1ae3b51764b9933bd13&oe=555B19C1&__gda__=1430859592_645cd30ffcba3acec708a3a8e3a0676c
p853
sg4
VWhats at the end of the murder mystery676c
p854
sa(dp855
g2
Vhttps://scontent-b.xx.fbcdn.net/hphotos-xfa1/v/t1.0-9/p180x540/394042_10151448850096055_147906789_n.jpg?oh=8c6d94a0cf08241cb4e6ac85c5a2b1b5&oe=5560CECA
p856
sg4
VFunny poseCECA
p857
sa(dp858
g2
Vhttps://fbcdn-sphotos-f-a.akamaihd.net/hphotos-ak-ash2/v/t1.0-9/p180x540/603959_10151448850091055_1112597400_n.jpg?oh=6c4b74c23ae7348f838cd06d237a27b6&oe=555D597E&__gda__=1432121458_5074be529678c60e8f391bb49635ee47
p859
sg4
VC3 Halloweenee47
p860
sa(dp861
g2
Vhttps://scontent-b.xx.fbcdn.net/hphotos-xfa1/v/l/t1.0-9/s720x720/527696_10151413063491055_1093511557_n.jpg?oh=38c48cce4021fcac3c82cc4c23ff2609&oe=55640A38
p862
sg4
V527696_10151413063491055_1093511557_n.jpg?oh=38c48cce4021fcac3c82cc4c23ff2609&oe=55640A38
p863
sa(dp864
g2
Vhttps://fbcdn-sphotos-b-a.akamaihd.net/hphotos-ak-xfa1/v/t1.0-9/p180x540/285081_10151404298836055_1203634937_n.jpg?oh=17396984e2ee060dabe1b8f8c7f3287e&oe=554FC717&__gda__=1431810337_0ec0c9969bc45beb66273d66a0e3acd5
p865
sg4
VSometimes the skies are gray Other times they take my breath awayacd5
p866
sa(dp867
g2
Vhttps://scontent-a.xx.fbcdn.net/hphotos-xfp1/t31.0-8/s720x720/622231_10151397077016055_1248112443_o.jpg
p868
sg4
VSchenley Park Panorama.jpg
p869
sa(dp870
g2
Vhttps://fbcdn-sphotos-e-a.akamaihd.net/hphotos-ak-xfp1/t31.0-8/p180x540/335625_10151386618941055_281059830_o.jpg
p871
sg4
VSomebody really really likes One Direction Hahaha.jpg
p872
sa(dp873
g2
Vhttps://fbcdn-sphotos-e-a.akamaihd.net/hphotos-ak-xaf1/v/t1.0-9/s720x720/262208_10151366909461055_782000028_n.jpg?oh=e9fbdbdaa2e16d8ff62a0203a1f090c1&oe=5566CBE3&__gda__=1435742109_c3cb799ffa2e27b11e8a607f5edc49fa
p874
sg4
VBeing an RA is a sticky situation sometimes  But I get to hang out with my residents  DPhotoId49fa
p875
sa(dp876
g2
Vhttps://scontent-a.xx.fbcdn.net/hphotos-xaf1/t31.0-8/p180x540/329019_10151357898796055_371686005_o.jpg
p877
sg4
VIMG_2011.jpg
p878
sa(dp879
g2
Vhttps://fbcdn-sphotos-f-a.akamaihd.net/hphotos-ak-xpf1/t31.0-8/p180x540/615239_10151357898706055_903929518_o.jpg
p880
sg4
VIMG_2020.jpg
p881
sa(dp882
g2
Vhttps://scontent-b.xx.fbcdn.net/hphotos-xfa1/t31.0-8/s720x720/329731_10151357898556055_1600936223_o.jpg
p883
sg4
VIMG_2018.jpg
p884
sa(dp885
g2
Vhttps://scontent-a.xx.fbcdn.net/hphotos-xfp1/t31.0-8/s720x720/220946_10151357898391055_903820551_o.jpg
p886
sg4
VIMG_1995.jpg
p887
sa(dp888
g2
Vhttps://scontent-a.xx.fbcdn.net/hphotos-xfp1/t31.0-8/p180x540/220889_10151357898201055_1643951200_o.jpg
p889
sg4
VIMG_2019.jpg
p890
sa(dp891
g2
Vhttps://fbcdn-sphotos-h-a.akamaihd.net/hphotos-ak-xfa1/t31.0-8/p180x540/287222_10151357898086055_2115564701_o.jpg
p892
sg4
VIMG_2007.jpg
p893
sa(dp894
g2
Vhttps://scontent-b.xx.fbcdn.net/hphotos-frc3/t31.0-8/p180x540/621108_10151357897996055_2101541610_o.jpg
p895
sg4
VIMG_2003.jpg
p896
sa(dp897
g2
Vhttps://fbcdn-sphotos-a-a.akamaihd.net/hphotos-ak-xaf1/t31.0-8/s720x720/286761_10151357897936055_9910101_o.jpg
p898
sg4
VIMG_2014.jpg
p899
sa(dp900
g2
Vhttps://scontent-a.xx.fbcdn.net/hphotos-xfp1/t31.0-8/p180x540/415071_10151357897836055_1618176199_o.jpg
p901
sg4
VIMG_2025.jpg
p902
sa(dp903
g2
Vhttps://fbcdn-sphotos-e-a.akamaihd.net/hphotos-ak-xfp1/t31.0-8/p180x540/257034_10151357897746055_531495754_o.jpg
p904
sg4
VIMG_1986.jpg
p905
sa(dp906
g2
Vhttps://scontent-a.xx.fbcdn.net/hphotos-xaf1/t31.0-8/s720x720/416549_10151357897686055_981370536_o.jpg
p907
sg4
VIMG_2010.jpg
p908
sa(dp909
g2
Vhttps://fbcdn-sphotos-b-a.akamaihd.net/hphotos-ak-xfa1/t31.0-8/p180x540/243986_10151357897601055_1952775746_o.jpg
p910
sg4
VIMG_1999.jpg
p911
sa(dp912
g2
Vhttps://scontent-b.xx.fbcdn.net/hphotos-xpf1/t31.0-8/s720x720/615032_10151357897501055_1429722431_o.jpg
p913
sg4
VIMG_1992.jpg
p914
sa(dp915
g2
Vhttps://fbcdn-sphotos-f-a.akamaihd.net/hphotos-ak-xfa1/t31.0-8/s720x720/191045_10151357897436055_963914000_o.jpg
p916
sg4
VIMG_2026.jpg
p917
sa(dp918
g2
Vhttps://fbcdn-sphotos-d-a.akamaihd.net/hphotos-ak-xfa1/t31.0-8/p180x540/416436_10151357897321055_1268486387_o.jpg
p919
sg4
VIMG_1994.jpg
p920
sa(dp921
g2
Vhttps://fbcdn-sphotos-g-a.akamaihd.net/hphotos-ak-xaf1/t31.0-8/s720x720/280704_10151357897171055_1770582494_o.jpg
p922
sg4
VIMG_1990.jpg
p923
sa(dp924
g2
Vhttps://fbcdn-sphotos-a-a.akamaihd.net/hphotos-ak-xap1/t31.0-8/p180x540/615212_10151357897091055_1787621954_o.jpg
p925
sg4
VIMG_2004.jpg
p926
sa(dp927
g2
Vhttps://fbcdn-sphotos-b-a.akamaihd.net/hphotos-ak-xfa1/t31.0-8/s720x720/194382_10151357897011055_1844750644_o.jpg
p928
sg4
VIMG_1987.jpg
p929
sa(dp930
g2
Vhttps://fbcdn-sphotos-h-a.akamaihd.net/hphotos-ak-xfa1/t31.0-8/p180x540/323582_10151357896891055_1850869909_o.jpg
p931
sg4
VIMG_2021.jpg
p932
sa(dp933
g2
Vhttps://fbcdn-sphotos-d-a.akamaihd.net/hphotos-ak-xfa1/t31.0-8/p180x540/416448_10151357896776055_1991296791_o.jpg
p934
sg4
VIMG_1997.jpg
p935
sa(dp936
g2
Vhttps://scontent-a.xx.fbcdn.net/hphotos-xaf1/t31.0-8/p180x540/416515_10151357896666055_632395639_o.jpg
p937
sg4
VIMG_2005.jpg
p938
sa(dp939
g2
Vhttps://fbcdn-sphotos-e-a.akamaihd.net/hphotos-ak-xaf1/v/t1.0-9/p480x480/205989_10151357896581055_116687198_n.jpg?oh=f3f7c016a575e27b09edf11a6fb1e128&oe=5555B16D&__gda__=1431640339_45fcff5d441cbf1ec56c0c1faa72d143
p940
sg4
VIMG_2027d143
p941
sa(dp942
g2
Vhttps://scontent-a.xx.fbcdn.net/hphotos-xfp1/t31.0-8/p180x540/257035_10151357896531055_787909052_o.jpg
p943
sg4
VIMG_2012.jpg
p944
sa(dp945
g2
Vhttps://fbcdn-sphotos-g-a.akamaihd.net/hphotos-ak-xaf1/t31.0-8/s720x720/287130_10151357896426055_475671008_o.jpg
p946
sg4
VIMG_2017.jpg
p947
sa(dp948
g2
Vhttps://scontent-a.xx.fbcdn.net/hphotos-xap1/t31.0-8/s720x720/242434_10151357896326055_1679072405_o.jpg
p949
sg4
VIMG_2016.jpg
p950
sa(dp951
g2
Vhttps://fbcdn-sphotos-b-a.akamaihd.net/hphotos-ak-xfa1/t31.0-8/p180x540/287229_10151357896241055_1868671040_o.jpg
p952
sg4
VIMG_1991.jpg
p953
sa(dp954
g2
Vhttps://fbcdn-sphotos-h-a.akamaihd.net/hphotos-ak-xpf1/t31.0-8/p180x540/415109_10151357896161055_1656856552_o.jpg
p955
sg4
VIMG_2013.jpg
p956
sa(dp957
g2
Vhttps://scontent-b.xx.fbcdn.net/hphotos-xpa1/t31.0-8/p180x540/616891_10151357896061055_475951600_o.jpg
p958
sg4
VIMG_2008.jpg
p959
sa(dp960
g2
Vhttps://fbcdn-sphotos-d-a.akamaihd.net/hphotos-ak-xpf1/t31.0-8/s720x720/329705_10151357895976055_1559711856_o.jpg
p961
sg4
VIMG_2024.jpg
p962
sa(dp963
g2
Vhttps://fbcdn-sphotos-a-a.akamaihd.net/hphotos-ak-xaf1/t31.0-8/p180x540/272656_10151357895926055_304293489_o.jpg
p964
sg4
VIMG_2023.jpg
p965
sa(dp966
g2
Vhttps://fbcdn-sphotos-g-a.akamaihd.net/hphotos-ak-xaf1/t31.0-8/p180x540/621030_10151357895801055_1612131745_o.jpg
p967
sg4
VIMG_2009.jpg
p968
sa(dp969
g2
Vhttps://scontent-b.xx.fbcdn.net/hphotos-xfa1/t31.0-8/p180x540/285887_10151357895671055_973130921_o.jpg
p970
sg4
VIMG_1989.jpg
p971
sa(dp972
g2
Vhttps://scontent-b.xx.fbcdn.net/hphotos-xfa1/l/t31.0-8/s720x720/191678_10151357895551055_739418712_o.jpg
p973
sg4
VIMG_1996.jpg
p974
sa(dp975
g2
Vhttps://fbcdn-sphotos-d-a.akamaihd.net/hphotos-ak-xfa1/t31.0-8/p180x540/339240_10151343422616055_1234402127_o.jpg
p976
sg4
VIMG_1975.jpg
p977
sa(dp978
g2
Vhttps://fbcdn-sphotos-b-a.akamaihd.net/hphotos-ak-xap1/t31.0-8/p180x540/616808_10151343422491055_1491127020_o.jpg
p979
sg4
VIMG_1974.jpg
p980
sa(dp981
g2
Vhttps://fbcdn-sphotos-h-a.akamaihd.net/hphotos-ak-xfa1/t31.0-8/p180x540/280179_10151343422356055_1585267986_o.jpg
p982
sg4
VIMG_1972.jpg
p983
sa(dp984
g2
Vhttps://scontent-a.xx.fbcdn.net/hphotos-xaf1/t31.0-8/p180x540/333211_10151343422221055_129436051_o.jpg
p985
sg4
VIMG_1970.jpg
p986
sa(dp987
g2
Vhttps://scontent-a.xx.fbcdn.net/hphotos-xaf1/t31.0-8/p180x540/339115_10151343421991055_1236002916_o.jpg
p988
sg4
VIMG_1969.jpg
p989
sa(dp990
g2
Vhttps://fbcdn-sphotos-f-a.akamaihd.net/hphotos-ak-xfa1/t31.0-8/p180x540/459366_10151343421776055_1775847095_o.jpg
p991
sg4
VIMG_1967.jpg
p992
sa(dp993
g2
Vhttps://fbcdn-sphotos-d-a.akamaihd.net/hphotos-ak-xfa1/t31.0-8/p180x540/328223_10151343421601055_1156181858_o.jpg
p994
sg4
VIMG_1964.jpg
p995
sa(dp996
g2
Vhttps://scontent-b.xx.fbcdn.net/hphotos-xfa1/t31.0-8/p180x540/192231_10151343421381055_135574000_o.jpg
p997
sg4
VIMG_1962.jpg
p998
sa(dp999
g2
Vhttps://fbcdn-sphotos-c-a.akamaihd.net/hphotos-ak-xap1/t31.0-8/p180x540/169575_10151343421166055_1225878879_o.jpg
p1000
sg4
VIMG_1959.jpg
p1001
sa(dp1002
g2
Vhttps://scontent-a.xx.fbcdn.net/hphotos-xfp1/t31.0-8/p180x540/614585_10151343421046055_252099385_o.jpg
p1003
sg4
VIMG_1958.jpg
p1004
sa(dp1005
g2
Vhttps://scontent-b.xx.fbcdn.net/hphotos-xfa1/t31.0-8/p180x540/191160_10151343420856055_1514211464_o.jpg
p1006
sg4
VIMG_1955.jpg
p1007
sa(dp1008
g2
Vhttps://fbcdn-sphotos-d-a.akamaihd.net/hphotos-ak-xfa1/t31.0-8/s720x720/459096_10151343420716055_1101920497_o.jpg
p1009
sg4
VIMG_1954.jpg
p1010
sa(dp1011
g2
Vhttps://scontent-a.xx.fbcdn.net/hphotos-xaf1/t31.0-8/p180x540/218373_10151343420586055_1205700450_o.jpg
p1012
sg4
VIMG_1953.jpg
p1013
sa(dp1014
g2
Vhttps://scontent-a.xx.fbcdn.net/hphotos-xaf1/t31.0-8/s720x720/337809_10151343420376055_346554329_o.jpg
p1015
sg4
VIMG_1946.jpg
p1016
sa(dp1017
g2
Vhttps://scontent-b.xx.fbcdn.net/hphotos-xfa1/t31.0-8/s720x720/289153_10151343420146055_2126214858_o.jpg
p1018
sg4
VIMG_1940.jpg
p1019
sa(dp1020
g2
Vhttps://fbcdn-sphotos-e-a.akamaihd.net/hphotos-ak-xfp1/t31.0-8/p180x540/278584_10151343420056055_1338862422_o.jpg
p1021
sg4
VIMG_1932.jpg
p1022
sa(dp1023
g2
Vhttps://scontent-a.xx.fbcdn.net/hphotos-xaf1/v/t1.0-9/386798_10151343419881055_730585705_n.jpg?oh=4844355e7771c006c4d55f7b362c2999&oe=554B64A7
p1024
sg4
VIMG_0025_664A7
p1025
sa(dp1026
g2
Vhttps://fbcdn-sphotos-f-a.akamaihd.net/hphotos-ak-xfa1/v/t1.0-9/226149_10151343419826055_1102098751_n.jpg?oh=612ea08eec58b0678e8db92b87fd31d8&oe=55509B3D&__gda__=1432388914_e947edc5963dc337ab9ccf2ab670e1e1
p1027
sg4
VIMG_0011_6e1e1
p1028
sa(dp1029
g2
Vhttps://fbcdn-sphotos-h-a.akamaihd.net/hphotos-ak-xpa1/t31.0-8/p180x540/616745_10151343419746055_1121198454_o.jpg
p1030
sg4
VIMG_1926.jpg
p1031
sa(dp1032
g2
Vhttps://scontent-b.xx.fbcdn.net/hphotos-xfa1/t31.0-8/p180x540/339238_10151343419606055_988527510_o.jpg
p1033
sg4
VIMG_1922.jpg
p1034
sa(dp1035
g2
Vhttps://fbcdn-sphotos-c-a.akamaihd.net/hphotos-ak-xaf1/t31.0-8/p180x540/210768_10151343419501055_1942462387_o.jpg
p1036
sg4
VIMG_1920.jpg
p1037
sa(dp1038
g2
Vhttps://scontent-a.xx.fbcdn.net/hphotos-xaf1/t31.0-8/p180x540/333273_10151343419401055_1358444062_o.jpg
p1039
sg4
VIMG_1919.jpg
p1040
sa(dp1041
g2
Vhttps://fbcdn-sphotos-g-a.akamaihd.net/hphotos-ak-xaf1/t31.0-8/s720x720/265830_10151343419251055_1893253855_o.jpg
p1042
sg4
VIMG_1915.jpg
p1043
sa(dp1044
g2
Vhttps://fbcdn-sphotos-b-a.akamaihd.net/hphotos-ak-xpf1/t31.0-8/p180x540/614500_10151343419116055_2085133996_o.jpg
p1045
sg4
VIMG_1914.jpg
p1046
sa(dp1047
g2
Vhttps://scontent-a.xx.fbcdn.net/hphotos-xaf1/t31.0-8/p180x540/459142_10151343418946055_1406839325_o.jpg
p1048
sg4
VIMG_1913.jpg
p1049
sa(dp1050
g2
Vhttps://scontent-a.xx.fbcdn.net/hphotos-xfp1/t31.0-8/s720x720/210968_10151343418751055_851921031_o.jpg
p1051
sg4
VIMG_1903.jpg
p1052
sa(dp1053
g2
Vhttps://fbcdn-sphotos-c-a.akamaihd.net/hphotos-ak-xaf1/t31.0-8/s720x720/327822_10151343418526055_856103822_o.jpg
p1054
sg4
VIMG_1889.jpg
p1055
sa(dp1056
g2
Vhttps://fbcdn-sphotos-b-a.akamaihd.net/hphotos-ak-xpa1/t31.0-8/p180x540/616313_10151343418396055_1178095417_o.jpg
p1057
sg4
VIMG_1874.jpg
p1058
sa(dp1059
g2
Vhttps://fbcdn-sphotos-b-a.akamaihd.net/hphotos-ak-xfa1/v/t1.0-9/s720x720/190026_10151309614921055_1207193953_n.jpg?oh=86c8629772a0afaf22c5caafc2e01f08&oe=5560DC67&__gda__=1435742801_dccc44295a1b378600b19866815737ad
p1060
sg4
VHello again Pittsburgh37ad
p1061
sa(dp1062
g2
Vhttps://scontent-b.xx.fbcdn.net/hphotos-prn2/v/t1.0-9/p180x540/539036_10151307959591055_1434242864_n.jpg?oh=e0a721e1a0f5279cb0b09dffe523ed80&oe=5559F845
p1063
sg4
VNightmare From The Rearview CameraF845
p1064
sa(dp1065
g2
Vhttps://fbcdn-sphotos-e-a.akamaihd.net/hphotos-ak-xaf1/v/t1.0-9/392196_10151294095396055_864650883_n.jpg?oh=b23703c484e0d0630ee4c2d8563c14d3&oe=5560CA70&__gda__=1435830435_b0b15c75976f6e4fc526d6342eaa86ea
p1066
sg4
V392196_10151294095396055_864650883_n.jpg?oh=b23703c484e0d0630ee4c2d8563c14d3&oe=5560CA70&__gda__=1435830435_b0b15c75976f6e4fc526d6342eaa86ea
p1067
sa(dp1068
g2
Vhttps://scontent-b.xx.fbcdn.net/hphotos-xfa1/v/t1.0-9/p180x540/396058_10151287658306055_75631257_n.jpg?oh=509d445a040dc574a781fb37818d849c&oe=554FAB04
p1069
sg4
VLightning shotAB04
p1070
sa(dp1071
g2
Vhttps://scontent-a.xx.fbcdn.net/hphotos-xaf1/v/t1.0-9/s720x720/532381_10151224967496055_1684130654_n.jpg?oh=5ac8fda3837be8cdb7dadac61bd1ce70&oe=5565C3BC
p1072
sg4
VWhat a sunsetC3BC
p1073
sa(dp1074
g2
Vhttps://scontent-b.xx.fbcdn.net/hphotos-xfa1/v/t1.0-9/s720x720/484483_10151045665261055_268607347_n.jpg?oh=31b3e3eb74ff45b14d84e7706c766ef7&oe=555945CB
p1075
sg4
VAbstract art from misused technology45CB
p1076
sa(dp1077
g2
Vhttps://fbcdn-sphotos-c-a.akamaihd.net/hphotos-ak-xfp1/v/t1.0-9/s720x720/224818_10151012264431055_1780602086_n.jpg?oh=5ee10bd5d3d97d0d3c7b07cd86b5ad90&oe=554C2860&__gda__=1432787689_e501a5b413657da102d6d7d9f4f1d080
p1078
sg4
VLambeau Stadium tour No leaping allowedd080
p1079
sa(dp1080
g2
Vhttps://fbcdn-sphotos-a-a.akamaihd.net/hphotos-ak-xfp1/t31.0-8/s720x720/474272_10150992895386055_145844781_o.jpg
p1081
sg4
Vsunsetsunrise as we crossed the dateline leaving the Philippines but carrying away such great mem.jpg
p1082
sa(dp1083
g2
Vhttps://fbcdn-sphotos-c-a.akamaihd.net/hphotos-ak-xaf1/t31.0-8/p180x540/479273_10150992894936055_1241758321_o.jpg
p1084
sg4
Vlol.jpg
p1085
sa(dp1086
g2
Vhttps://fbcdn-sphotos-f-a.akamaihd.net/hphotos-ak-xpf1/t31.0-8/p180x540/464999_10150992894346055_541604311_o.jpg
p1087
sg4
Vsaying goodbye.jpg
p1088
sa(dp1089
g2
Vhttps://fbcdn-sphotos-e-a.akamaihd.net/hphotos-ak-xaf1/t31.0-8/p180x540/459705_10150992894011055_1376686894_o.jpg
p1090
sg4
VMall of Asia.jpg
p1091
sa(dp1092
g2
Vhttps://scontent-a.xx.fbcdn.net/hphotos-xaf1/t31.0-8/s720x720/467721_10150992893731055_645625399_o.jpg
p1093
sg4
VI think shes angry.jpg
p1094
sa(dp1095
g2
Vhttps://scontent-a.xx.fbcdn.net/hphotos-xaf1/t31.0-8/s720x720/410990_10150992893466055_1133152345_o.jpg
p1096
sg4
Vhmm is this legit.jpg
p1097
sa(dp1098
g2
Vhttps://scontent-a.xx.fbcdn.net/hphotos-xaf1/t31.0-8/p180x540/477462_10150992892951055_1479447156_o.jpg
p1099
sg4
Vnot quite apt 9.jpg
p1100
sa(dp1101
g2
Vhttps://fbcdn-sphotos-e-a.akamaihd.net/hphotos-ak-xaf1/t31.0-8/s720x720/458298_10150992892741055_1969499665_o.jpg
p1102
sg4
V458298_10150992892741055_1969499665_o.jpg
p1103
sa(dp1104
g2
Vhttps://scontent-a.xx.fbcdn.net/hphotos-xaf1/t31.0-8/s720x720/474327_10150992892546055_1266957540_o.jpg
p1105
sg4
V474327_10150992892546055_1266957540_o.jpg
p1106
sa(dp1107
g2
Vhttps://fbcdn-sphotos-d-a.akamaihd.net/hphotos-ak-xfa1/t31.0-8/s720x720/470368_10150992891971055_259125865_o.jpg
p1108
sg4
V470368_10150992891971055_259125865_o.jpg
p1109
sa(dp1110
g2
Vhttps://scontent-b.xx.fbcdn.net/hphotos-xfa1/t31.0-8/p180x540/456759_10150992891561055_254358273_o.jpg
p1111
sg4
V456759_10150992891561055_254358273_o.jpg
p1112
sa(dp1113
g2
Vhttps://fbcdn-sphotos-b-a.akamaihd.net/hphotos-ak-xfa1/t31.0-8/p180x540/463566_10150992891256055_698812733_o.jpg
p1114
sg4
Vnow for some flowers.jpg
p1115
sa(dp1116
g2
Vhttps://fbcdn-sphotos-c-a.akamaihd.net/hphotos-ak-xaf1/t31.0-8/p180x540/456646_10150992890736055_1789675050_o.jpg
p1117
sg4
V456646_10150992890736055_1789675050_o.jpg
p1118
sa(dp1119
g2
Vhttps://scontent-b.xx.fbcdn.net/hphotos-xfa1/t31.0-8/p180x540/412336_10150992890246055_937284212_o.jpg
p1120
sg4
VDavid running in sheer terror from the attack birds.jpg
p1121
sa(dp1122
g2
Vhttps://scontent-b.xx.fbcdn.net/hphotos-xfa1/t31.0-8/p180x540/475224_10150992889916055_570484075_o.jpg
p1123
sg4
Vwish we still had these in the US.jpg
p1124
sa(dp1125
g2
Vhttps://fbcdn-sphotos-c-a.akamaihd.net/hphotos-ak-xfp1/t31.0-8/p180x540/414841_10150992889251055_1486825940_o.jpg
p1126
sg4
Vthis is right before we all started yawning ).jpg
p1127
sa(dp1128
g2
Vhttps://fbcdn-sphotos-a-a.akamaihd.net/hphotos-ak-xaf1/t31.0-8/p180x540/461502_10150992888836055_1271860194_o.jpg
p1129
sg4
Vtrolled.jpg
p1130
sa(dp1131
g2
Vhttps://fbcdn-sphotos-g-a.akamaihd.net/hphotos-ak-xaf1/t31.0-8/p180x540/461947_10150992888581055_1970294244_o.jpg
p1132
sg4
V461947_10150992888581055_1970294244_o.jpg
p1133
sa(dp1134
g2
Vhttps://fbcdn-sphotos-c-a.akamaihd.net/hphotos-ak-xaf1/t31.0-8/p180x540/460247_10150992888066055_1996694379_o.jpg
p1135
sg4
V460247_10150992888066055_1996694379_o.jpg
p1136
sa(dp1137
g2
Vhttps://fbcdn-sphotos-a-a.akamaihd.net/hphotos-ak-xaf1/t31.0-8/p180x540/476200_10150992887746055_1549489071_o.jpg
p1138
sg4
Vapparently restricted.jpg
p1139
sa(dp1140
g2
Vhttps://scontent-a.xx.fbcdn.net/hphotos-xfp1/t31.0-8/p180x540/414773_10150992887491055_151641284_o.jpg
p1141
sg4
V414773_10150992887491055_151641284_o.jpg
p1142
sa(dp1143
g2
Vhttps://scontent-b.xx.fbcdn.net/hphotos-xfa1/t31.0-8/p180x540/459267_10150992887186055_927663636_o.jpg
p1144
sg4
V459267_10150992887186055_927663636_o.jpg
p1145
sa(dp1146
g2
Vhttps://fbcdn-sphotos-b-a.akamaihd.net/hphotos-ak-xfa1/t31.0-8/s720x720/461790_10150992886811055_1835412099_o.jpg
p1147
sg4
V461790_10150992886811055_1835412099_o.jpg
p1148
sa(dp1149
g2
Vhttps://fbcdn-sphotos-h-a.akamaihd.net/hphotos-ak-xfa1/t31.0-8/p180x540/412808_10150992886561055_76101762_o.jpg
p1150
sg4
V412808_10150992886561055_76101762_o.jpg
p1151
sa(dp1152
g2
Vhttps://scontent-a.xx.fbcdn.net/hphotos-xaf1/t31.0-8/p180x540/463178_10150992886266055_151395974_o.jpg
p1153
sg4
Vinteresting tower.jpg
p1154
sa(dp1155
g2
Vhttps://scontent-b.xx.fbcdn.net/hphotos-xfa1/t31.0-8/p180x540/413871_10150992886011055_1356843031_o.jpg
p1156
sg4
V413871_10150992886011055_1356843031_o.jpg
p1157
sa(dp1158
g2
Vhttps://fbcdn-sphotos-b-a.akamaihd.net/hphotos-ak-xfa1/t31.0-8/p180x540/470394_10150992885786055_1990592550_o.jpg
p1159
sg4
V470394_10150992885786055_1990592550_o.jpg
p1160
sa(dp1161
g2
Vhttps://fbcdn-sphotos-d-a.akamaihd.net/hphotos-ak-xfa1/t31.0-8/p180x540/462904_10150992885396055_1890119535_o.jpg
p1162
sg4
V462904_10150992885396055_1890119535_o.jpg
p1163
sa(dp1164
g2
Vhttps://fbcdn-sphotos-f-a.akamaihd.net/hphotos-ak-xfa1/t31.0-8/s720x720/461420_10150992885031055_624172204_o.jpg
p1165
sg4
Vmessed up but still cool.jpg
p1166
sa(dp1167
g2
Vhttps://scontent-a.xx.fbcdn.net/hphotos-xfp1/t31.0-8/p180x540/413548_10150992884826055_726235016_o.jpg
p1168
sg4
Vpineapple on top of the mountain(spongebobs vacation home).jpg
p1169
sa(dp1170
g2
Vhttps://fbcdn-sphotos-e-a.akamaihd.net/hphotos-ak-xap1/t31.0-8/p180x540/456647_10150992884451055_355136506_o.jpg
p1171
sg4
V456647_10150992884451055_355136506_o.jpg
p1172
sa(dp1173
g2
Vhttps://scontent-b.xx.fbcdn.net/hphotos-xfa1/t31.0-8/p180x540/461867_10150992884031055_731050581_o.jpg
p1174
sg4
Vthis calls for sepia.jpg
p1175
sa(dp1176
g2
Vhttps://scontent-a.xx.fbcdn.net/hphotos-xaf1/t31.0-8/s720x720/471602_10150992883481055_1713395134_o.jpg
p1177
sg4
V471602_10150992883481055_1713395134_o.jpg
p1178
sa(dp1179
g2
Vhttps://scontent-a.xx.fbcdn.net/hphotos-xaf1/t31.0-8/s720x720/458341_10150992883276055_1770676996_o.jpg
p1180
sg4
V458341_10150992883276055_1770676996_o.jpg
p1181
sa(dp1182
g2
Vhttps://scontent-a.xx.fbcdn.net/hphotos-xaf1/t31.0-8/s720x720/479157_10150992882721055_1552346821_o.jpg
p1183
sg4
Vaww.jpg
p1184
sa(dp1185
g2
Vhttps://fbcdn-sphotos-h-a.akamaihd.net/hphotos-ak-xfa1/t31.0-8/s720x720/463044_10150992882316055_1129573626_o.jpg
p1186
sg4
V463044_10150992882316055_1129573626_o.jpg
p1187
sa(dp1188
g2
Vhttps://fbcdn-sphotos-b-a.akamaihd.net/hphotos-ak-xfa1/t31.0-8/s720x720/464009_10150992882081055_1427074398_o.jpg
p1189
sg4
VAt the top.jpg
p1190
sa(dp1191
g2
Vhttps://fbcdn-sphotos-f-a.akamaihd.net/hphotos-ak-xfa1/t31.0-8/s720x720/416444_10150992881646055_2066520030_o.jpg
p1192
sg4
VPanorama at the top(with a floating Evelyn).jpg
p1193
sa(dp1194
g2
Vhttps://scontent-a.xx.fbcdn.net/hphotos-xaf1/t31.0-8/s720x720/474245_10150992881191055_612609604_o.jpg
p1195
sg4
VAwesome FactThis is a picture ofan islandin a lakeon an islandin a lakeon an islandin an oc.jpg
p1196
sa(dp1197
g2
Vhttps://fbcdn-sphotos-b-a.akamaihd.net/hphotos-ak-xfa1/t31.0-8/p180x540/414236_10150992880796055_355230507_o.jpg
p1198
sg4
V414236_10150992880796055_355230507_o.jpg
p1199
sa(dp1200
g2
Vhttps://scontent-b.xx.fbcdn.net/hphotos-xfa1/t31.0-8/p180x540/461185_10150992879816055_1173415601_o.jpg
p1201
sg4
V461185_10150992879816055_1173415601_o.jpg
p1202
sa(dp1203
g2
Vhttps://scontent-a.xx.fbcdn.net/hphotos-xaf1/t31.0-8/p180x540/461299_10150992879201055_541903081_o.jpg
p1204
sg4
VThe volcano crater.jpg
p1205
sa(dp1206
g2
Vhttps://scontent-b.xx.fbcdn.net/hphotos-xfa1/t31.0-8/s720x720/415436_10150992878846055_2106898290_o.jpg
p1207
sg4
VThis is when I remembered I have a panorama app.jpg
p1208
sa(dp1209
g2
Vhttps://scontent-b.xx.fbcdn.net/hphotos-xap1/t31.0-8/s720x720/457481_10150992878551055_1231288173_o.jpg
p1210
sg4
V457481_10150992878551055_1231288173_o.jpg
p1211
sa(dp1212
g2
Vhttps://scontent-a.xx.fbcdn.net/hphotos-xfp1/t31.0-8/p180x540/458083_10150992878031055_1299338580_o.jpg
p1213
sg4
V458083_10150992878031055_1299338580_o.jpg
p1214
sa(dp1215
g2
Vhttps://scontent-a.xx.fbcdn.net/hphotos-xfp1/t31.0-8/p180x540/460024_10150992877551055_1380272201_o.jpg
p1216
sg4
V460024_10150992877551055_1380272201_o.jpg
p1217
sa(dp1218
g2
Vhttps://scontent-a.xx.fbcdn.net/hphotos-xaf1/t31.0-8/p180x540/410983_10150992877156055_445972596_o.jpg
p1219
sg4
V410983_10150992877156055_445972596_o.jpg
p1220
sa(dp1221
g2
Vhttps://fbcdn-sphotos-b-a.akamaihd.net/hphotos-ak-xfa1/t31.0-8/p180x540/478790_10150992876756055_482080793_o.jpg
p1222
sg4
V478790_10150992876756055_482080793_o.jpg
p1223
sa(dp1224
g2
Vhttps://fbcdn-sphotos-h-a.akamaihd.net/hphotos-ak-xpf1/t31.0-8/p180x540/474734_10150992876426055_1527232890_o.jpg
p1225
sg4
V474734_10150992876426055_1527232890_o.jpg
p1226
sa(dp1227
g2
Vhttps://fbcdn-sphotos-f-a.akamaihd.net/hphotos-ak-xpf1/t31.0-8/p180x540/460860_10150992876091055_882759524_o.jpg
p1228
sg4
V460860_10150992876091055_882759524_o.jpg
p1229
sa(dp1230
g2
Vhttps://fbcdn-sphotos-d-a.akamaihd.net/hphotos-ak-xfa1/t31.0-8/p180x540/476911_10150992875706055_479112310_o.jpg
p1231
sg4
V476911_10150992875706055_479112310_o.jpg
p1232
sa(dp1233
g2
Vhttps://fbcdn-sphotos-c-a.akamaihd.net/hphotos-ak-xaf1/t31.0-8/p180x540/479372_10150992875296055_1796806591_o.jpg
p1234
sg4
Vtrip to the Taal Volcano.jpg
p1235
sa(dp1236
g2
Vhttps://fbcdn-sphotos-d-a.akamaihd.net/hphotos-ak-xfa1/t31.0-8/s720x720/459624_10150992875041055_641285652_o.jpg
p1237
sg4
V459624_10150992875041055_641285652_o.jpg
p1238
sa(dp1239
g2
Vhttps://fbcdn-sphotos-h-a.akamaihd.net/hphotos-ak-xfa1/t31.0-8/s720x720/470412_10150992874741055_1899258611_o.jpg
p1240
sg4
V470412_10150992874741055_1899258611_o.jpg
p1241
sa(dp1242
g2
Vhttps://scontent-b.xx.fbcdn.net/hphotos-xfa1/t31.0-8/p180x540/459441_10150992874466055_1565984604_o.jpg
p1243
sg4
V459441_10150992874466055_1565984604_o.jpg
p1244
sa(dp1245
g2
Vhttps://fbcdn-sphotos-g-a.akamaihd.net/hphotos-ak-xaf1/t31.0-8/s720x720/476485_10150992874021055_623378200_o.jpg
p1246
sg4
V476485_10150992874021055_623378200_o.jpg
p1247
sa(dp1248
g2
Vhttps://scontent-b.xx.fbcdn.net/hphotos-xfa1/t31.0-8/p180x540/477299_10150992873466055_1149890066_o.jpg
p1249
sg4
Vsharing the Gospel(with chemistry).jpg
p1250
sa(dp1251
g2
Vhttps://scontent-a.xx.fbcdn.net/hphotos-xaf1/t31.0-8/p180x540/456479_10150992872856055_530275383_o.jpg
p1252
sg4
Vso many children.jpg
p1253
sa(dp1254
g2
Vhttps://scontent-a.xx.fbcdn.net/hphotos-xaf1/t31.0-8/p180x540/415278_10150992872581055_2018022375_o.jpg
p1255
sg4
V415278_10150992872581055_2018022375_o.jpg
p1256
sa(dp1257
g2
Vhttps://scontent-a.xx.fbcdn.net/hphotos-xaf1/t31.0-8/p180x540/415971_10150992872196055_907195451_o.jpg
p1258
sg4
V415971_10150992872196055_907195451_o.jpg
p1259
sa(dp1260
g2
Vhttps://fbcdn-sphotos-f-a.akamaihd.net/hphotos-ak-xpf1/t31.0-8/p180x540/414537_10150992871796055_1958500029_o.jpg
p1261
sg4
V414537_10150992871796055_1958500029_o.jpg
p1262
sa(dp1263
g2
Vhttps://fbcdn-sphotos-b-a.akamaihd.net/hphotos-ak-xfa1/t31.0-8/p180x540/465881_10150992871276055_116316198_o.jpg
p1264
sg4
V465881_10150992871276055_116316198_o.jpg
p1265
sa(dp1266
g2
Vhttps://scontent-b.xx.fbcdn.net/hphotos-xfa1/t31.0-8/p180x540/458859_10150992870826055_444853445_o.jpg
p1267
sg4
Vlast day with the kids.jpg
p1268
sa(dp1269
g2
Vhttps://scontent-b.xx.fbcdn.net/hphotos-xfa1/t31.0-8/p180x540/472297_10150992870501055_37295463_o.jpg
p1270
sg4
VJust another beautiful morning in San Pedro.jpg
p1271
sa(dp1272
g2
Vhttps://scontent-a.xx.fbcdn.net/hphotos-xfp1/t31.0-8/p180x540/472081_10150992870106055_872478973_o.jpg
p1273
sg4
V472081_10150992870106055_872478973_o.jpg
p1274
sa(dp1275
g2
Vhttps://fbcdn-sphotos-c-a.akamaihd.net/hphotos-ak-xaf1/t31.0-8/p180x540/472202_10150992869856055_375617061_o.jpg
p1276
sg4
VFilipino vs USA basketball game.jpg
p1277
sa(dp1278
g2
Vhttps://scontent-a.xx.fbcdn.net/hphotos-xfp1/t31.0-8/s720x720/413032_10150992869601055_2086794384_o.jpg
p1279
sg4
VThe girls turn.jpg
p1280
sa(dp1281
g2
Vhttps://fbcdn-sphotos-d-a.akamaihd.net/hphotos-ak-xfa1/t31.0-8/p180x540/456780_10150992869311055_1023709825_o.jpg
p1282
sg4
VSportsfestAn interesting race game  Didnt look too fun for the participants though.jpg
p1283
sa(dp1284
g2
Vhttps://fbcdn-sphotos-b-a.akamaihd.net/hphotos-ak-xfa1/t31.0-8/p180x540/412930_10150992868806055_1173456673_o.jpg
p1285
sg4
VThe Laguna de Bay.jpg
p1286
sa(dp1287
g2
Vhttps://scontent-b.xx.fbcdn.net/hphotos-xfa1/t31.0-8/p180x540/464025_10150992868221055_1514608522_o.jpg
p1288
sg4
V464025_10150992868221055_1514608522_o.jpg
p1289
sa(dp1290
g2
Vhttps://fbcdn-sphotos-e-a.akamaihd.net/hphotos-ak-xaf1/t31.0-8/p180x540/467685_10150992867826055_1415199457_o.jpg
p1291
sg4
VPineapple pie.jpg
p1292
sa(dp1293
g2
Vhttps://scontent-b.xx.fbcdn.net/hphotos-xfa1/t31.0-8/s720x720/479474_10150992867551055_1702391240_o.jpg
p1294
sg4
V479474_10150992867551055_1702391240_o.jpg
p1295
sa(dp1296
g2
Vhttps://fbcdn-sphotos-d-a.akamaihd.net/hphotos-ak-xfa1/t31.0-8/p180x540/469654_10150992867246055_415892911_o.jpg
p1297
sg4
VBut everybodys got a water buffalo(including Kaitlyn).jpg
p1298
sa(dp1299
g2
Vhttps://scontent-a.xx.fbcdn.net/hphotos-xaf1/t31.0-8/p180x540/461319_10150992866861055_1488807720_o.jpg
p1300
sg4
VWhere did we get themI dont know.jpg
p1301
sa(dp1302
g2
Vhttps://scontent-a.xx.fbcdn.net/hphotos-xaf1/t31.0-8/p180x540/456475_10150992866506055_1684834279_o.jpg
p1303
sg4
Vyours is fast but mine is slow.jpg
p1304
sa(dp1305
g2
Vhttps://scontent-b.xx.fbcdn.net/hphotos-xfa1/t31.0-8/p180x540/460597_10150992866216055_1687326164_o.jpg
p1306
sg4
VEverybodys got a water buffalo.jpg
p1307
sa(dp1308
g2
Vhttps://fbcdn-sphotos-g-a.akamaihd.net/hphotos-ak-xfp1/t31.0-8/p180x540/460276_10150992865551055_431068867_o.jpg
p1309
sg4
VWater Buffalo Chocolate MilkHad to try itWasnt very good.jpg
p1310
sa(dp1311
g2
Vhttps://fbcdn-sphotos-f-a.akamaihd.net/hphotos-ak-xfa1/t31.0-8/s720x720/467782_10150992865151055_2002452632_o.jpg
p1312
sg4
V467782_10150992865151055_2002452632_o.jpg
p1313
sa(dp1314
g2
Vhttps://scontent-b.xx.fbcdn.net/hphotos-xfa1/t31.0-8/p180x540/461452_10150992864691055_1070443596_o.jpg
p1315
sg4
Vat Los Banos.jpg
p1316
sa(dp1317
g2
Vhttps://fbcdn-sphotos-b-a.akamaihd.net/hphotos-ak-xfa1/t31.0-8/p180x540/465882_10150992864261055_1424487555_o.jpg
p1318
sg4
Vyour texts will never die.jpg
p1319
sa(dp1320
g2
Vhttps://fbcdn-sphotos-e-a.akamaihd.net/hphotos-ak-xaf1/t31.0-8/p180x540/477873_10150992863946055_1342888094_o.jpg
p1321
sg4
V.jpg
p1322
sa(dp1323
g2
Vhttps://scontent-a.xx.fbcdn.net/hphotos-xaf1/t31.0-8/p180x540/477982_10150992863661055_1122983634_o.jpg
p1324
sg4
Vdelicious mangoes.jpg
p1325
sa(dp1326
g2
Vhttps://fbcdn-sphotos-d-a.akamaihd.net/hphotos-ak-xfa1/t31.0-8/s720x720/415966_10150992863331055_933102830_o.jpg
p1327
sg4
Vthe civE project a drainage path.jpg
p1328
sa(dp1329
g2
Vhttps://fbcdn-sphotos-h-a.akamaihd.net/hphotos-ak-xfa1/t31.0-8/p180x540/474879_10150992862796055_1832800664_o.jpg
p1330
sg4
V474879_10150992862796055_1832800664_o.jpg
p1331
sa(dp1332
g2
Vhttps://fbcdn-sphotos-e-a.akamaihd.net/hphotos-ak-xaf1/t31.0-8/s720x720/472980_10150992862241055_963280832_o.jpg
p1333
sg4
V472980_10150992862241055_963280832_o.jpg
p1334
sa(dp1335
g2
Vhttps://scontent-a.xx.fbcdn.net/hphotos-xaf1/l/t31.0-8/p180x540/460291_10150992861816055_1206216774_o.jpg
p1336
sg4
Vthis boy chased our van for about a half-mile.jpg
p1337
sa(dp1338
g2
Vhttps://fbcdn-sphotos-b-a.akamaihd.net/hphotos-ak-xpf1/t31.0-8/p180x540/413139_10150992861521055_158912939_o.jpg
p1339
sg4
V413139_10150992861521055_158912939_o.jpg
p1340
sa(dp1341
g2
Vhttps://scontent-b.xx.fbcdn.net/hphotos-xfa1/t31.0-8/p180x540/466761_10150992860921055_703846552_o.jpg
p1342
sg4
V466761_10150992860921055_703846552_o.jpg
p1343
sa(dp1344
g2
Vhttps://fbcdn-sphotos-a-a.akamaihd.net/hphotos-ak-xaf1/t31.0-8/p180x540/464984_10150992860476055_1689996234_o.jpg
p1345
sg4
V464984_10150992860476055_1689996234_o.jpg
p1346
sa(dp1347
g2
Vhttps://scontent-b.xx.fbcdn.net/hphotos-xfa1/t31.0-8/s720x720/410883_10150992860081055_79090395_o.jpg
p1348
sg4
V410883_10150992860081055_79090395_o.jpg
p1349
sa(dp1350
g2
Vhttps://fbcdn-sphotos-e-a.akamaihd.net/hphotos-ak-xaf1/t31.0-8/s720x720/475900_10150992859636055_761412937_o.jpg
p1351
sg4
V475900_10150992859636055_761412937_o.jpg
p1352
sa(dp1353
g2
Vhttps://fbcdn-sphotos-b-a.akamaihd.net/hphotos-ak-xpf1/t31.0-8/s720x720/460860_10150992859236055_1289340052_o.jpg
p1354
sg4
V460860_10150992859236055_1289340052_o.jpg
p1355
sa(dp1356
g2
Vhttps://fbcdn-sphotos-h-a.akamaihd.net/hphotos-ak-xfa1/t31.0-8/p180x540/465977_10150992858846055_1048082268_o.jpg
p1357
sg4
V465977_10150992858846055_1048082268_o.jpg
p1358
sa(dp1359
g2
Vhttps://scontent-a.xx.fbcdn.net/hphotos-xaf1/t31.0-8/p180x540/410957_10150992858676055_1965390918_o.jpg
p1360
sg4
V410957_10150992858676055_1965390918_o.jpg
p1361
sa(dp1362
g2
Vhttps://scontent-a.xx.fbcdn.net/hphotos-xaf1/t31.0-8/s720x720/478317_10150992858181055_1603433647_o.jpg
p1363
sg4
V478317_10150992858181055_1603433647_o.jpg
p1364
sa(dp1365
g2
Vhttps://scontent-a.xx.fbcdn.net/hphotos-prn2/t31.0-8/p180x540/1014653_10150992857721055_549163700_o.jpg
p1366
sg4
V1014653_10150992857721055_549163700_o.jpg
p1367
sa(dp1368
g2
Vhttps://fbcdn-sphotos-b-a.akamaihd.net/hphotos-ak-xfa1/t31.0-8/p180x540/478641_10150992857291055_811687985_o.jpg
p1369
sg4
Vrooster fight.jpg
p1370
sa(dp1371
g2
Vhttps://scontent-b.xx.fbcdn.net/hphotos-xfa1/t31.0-8/p180x540/468309_10150992856831055_1079209216_o.jpg
p1372
sg4
V468309_10150992856831055_1079209216_o.jpg
p1373
sa(dp1374
g2
Vhttps://fbcdn-sphotos-f-a.akamaihd.net/hphotos-ak-xfa1/t31.0-8/p180x540/412132_10150992856511055_744513565_o.jpg
p1375
sg4
V412132_10150992856511055_744513565_o.jpg
p1376
sa(dp1377
g2
Vhttps://fbcdn-sphotos-a-a.akamaihd.net/hphotos-ak-xaf1/t31.0-8/p180x540/459945_10150992856076055_135544895_o.jpg
p1378
sg4
V459945_10150992856076055_135544895_o.jpg
p1379
sa(dp1380
g2
Vhttps://fbcdn-sphotos-g-a.akamaihd.net/hphotos-ak-xaf1/t31.0-8/p180x540/461762_10150992855726055_1376539373_o.jpg
p1381
sg4
Va ball-rolling game.jpg
p1382
sa(dp1383
g2
Vhttps://scontent-b.xx.fbcdn.net/hphotos-xfa1/l/t31.0-8/p180x540/467597_10150992855426055_121632495_o.jpg
p1384
sg4
V467597_10150992855426055_121632495_o.jpg
p1385
sa(dp1386
g2
Vhttps://fbcdn-sphotos-e-a.akamaihd.net/hphotos-ak-xaf1/t31.0-8/p180x540/470121_10150992854861055_2076508237_o.jpg
p1387
sg4
V470121_10150992854861055_2076508237_o.jpg
p1388
sa(dp1389
g2
Vhttps://scontent-a.xx.fbcdn.net/hphotos-xaf1/t31.0-8/s720x720/414181_10150992854121055_428680029_o.jpg
p1390
sg4
VDutch Blitz.jpg
p1391
sa(dp1392
g2
Vhttps://scontent-a.xx.fbcdn.net/hphotos-xaf1/t31.0-8/p180x540/470230_10150992853606055_30071570_o.jpg
p1393
sg4
V470230_10150992853606055_30071570_o.jpg
p1394
sa(dp1395
g2
Vhttps://fbcdn-sphotos-d-a.akamaihd.net/hphotos-ak-xfa1/t31.0-8/p180x540/471585_10150992853186055_576711755_o.jpg
p1396
sg4
VThe incredible church we worked with.jpg
p1397
sa(dp1398
g2
Vhttps://fbcdn-sphotos-b-a.akamaihd.net/hphotos-ak-xfa1/t31.0-8/p180x540/472682_10150992852461055_375635598_o.jpg
p1399
sg4
Vhe lost and had to write his name with his butt  I think hes on the letter o.jpg
p1400
sa(dp1401
g2
Vhttps://fbcdn-sphotos-c-a.akamaihd.net/hphotos-ak-xaf1/t31.0-8/p180x540/460177_10150992851986055_1852800323_o.jpg
p1402
sg4
V460177_10150992851986055_1852800323_o.jpg
p1403
sa(dp1404
g2
Vhttps://scontent-b.xx.fbcdn.net/hphotos-xpf1/t31.0-8/p180x540/414462_10150992851546055_2037420008_o.jpg
p1405
sg4
V414462_10150992851546055_2037420008_o.jpg
p1406
sa(dp1407
g2
Vhttps://scontent-b.xx.fbcdn.net/hphotos-xfa1/t31.0-8/p180x540/467889_10150992850926055_1517373234_o.jpg
p1408
sg4
V467889_10150992850926055_1517373234_o.jpg
p1409
sa(dp1410
g2
Vhttps://scontent-b.xx.fbcdn.net/hphotos-xfa1/t31.0-8/p180x540/459313_10150992850491055_1099270834_o.jpg
p1411
sg4
V459313_10150992850491055_1099270834_o.jpg
p1412
sa(dp1413
g2
Vhttps://scontent-a.xx.fbcdn.net/hphotos-xaf1/t31.0-8/p180x540/412761_10150992850146055_2001949655_o.jpg
p1414
sg4
V412761_10150992850146055_2001949655_o.jpg
p1415
sa(dp1416
g2
Vhttps://fbcdn-sphotos-c-a.akamaihd.net/hphotos-ak-xaf1/t31.0-8/p180x540/471535_10150992849696055_572596135_o.jpg
p1417
sg4
V471535_10150992849696055_572596135_o.jpg
p1418
sa(dp1419
g2
Vhttps://fbcdn-sphotos-a-a.akamaihd.net/hphotos-ak-xaf1/v/t1.0-9/522859_10150992849166055_1437696359_n.jpg?oh=dcb304d205b20a7ae22768de1c758db2&oe=554CE22B&__gda__=1431303584_7860a4e9331bd9f02cbb08efb31b67d3
p1420
sg4
VAlvin67d3
p1421
sa(dp1422
g2
Vhttps://fbcdn-sphotos-g-a.akamaihd.net/hphotos-ak-xaf1/t31.0-8/p180x540/458001_10150992848991055_1720965701_o.jpg
p1423
sg4
V458001_10150992848991055_1720965701_o.jpg
p1424
sa(dp1425
g2
Vhttps://scontent-a.xx.fbcdn.net/hphotos-xaf1/t31.0-8/s720x720/473108_10150992848466055_242104597_o.jpg
p1426
sg4
V473108_10150992848466055_242104597_o.jpg
p1427
sa(dp1428
g2
Vhttps://fbcdn-sphotos-f-a.akamaihd.net/hphotos-ak-xfa1/t31.0-8/p180x540/463000_10150992848031055_1246316450_o.jpg
p1429
sg4
V463000_10150992848031055_1246316450_o.jpg
p1430
sa(dp1431
g2
Vhttps://scontent-a.xx.fbcdn.net/hphotos-xaf1/t31.0-8/p180x540/466134_10150992847396055_1356710687_o.jpg
p1432
sg4
V466134_10150992847396055_1356710687_o.jpg
p1433
sa(dp1434
g2
Vhttps://fbcdn-sphotos-g-a.akamaihd.net/hphotos-ak-xaf1/t31.0-8/s720x720/416317_10150992846986055_1453969826_o.jpg
p1435
sg4
V416317_10150992846986055_1453969826_o.jpg
p1436
sa(dp1437
g2
Vhttps://fbcdn-sphotos-h-a.akamaihd.net/hphotos-ak-xfa1/t31.0-8/s720x720/457857_10150992846561055_1747852898_o.jpg
p1438
sg4
V457857_10150992846561055_1747852898_o.jpg
p1439
sa(dp1440
g2
Vhttps://scontent-b.xx.fbcdn.net/hphotos-xfa1/t31.0-8/p180x540/456269_10150992846161055_2016385983_o.jpg
p1441
sg4
V456269_10150992846161055_2016385983_o.jpg
p1442
sa(dp1443
g2
Vhttps://scontent-a.xx.fbcdn.net/hphotos-xaf1/t31.0-8/p180x540/479173_10150992845601055_2008644808_o.jpg
p1444
sg4
Vplaying with the kids was a workout.jpg
p1445
sa(dp1446
g2
Vhttps://scontent-a.xx.fbcdn.net/hphotos-xaf1/t31.0-8/s720x720/460996_10150992845121055_479718692_o.jpg
p1447
sg4
V460996_10150992845121055_479718692_o.jpg
p1448
sa(dp1449
g2
Vhttps://scontent-b.xx.fbcdn.net/hphotos-xfa1/t31.0-8/s720x720/414209_10150992844761055_789897313_o.jpg
p1450
sg4
V414209_10150992844761055_789897313_o.jpg
p1451
sa(dp1452
g2
Vhttps://fbcdn-sphotos-h-a.akamaihd.net/hphotos-ak-xfa1/t31.0-8/p180x540/416357_10150992844376055_1174837306_o.jpg
p1453
sg4
Vthis bridge was a little bit less than stable.jpg
p1454
sa(dp1455
g2
Vhttps://scontent-b.xx.fbcdn.net/hphotos-xfa1/t31.0-8/s720x720/472631_10150992843946055_1704501520_o.jpg
p1456
sg4
V472631_10150992843946055_1704501520_o.jpg
p1457
sa(dp1458
g2
Vhttps://fbcdn-sphotos-g-a.akamaihd.net/hphotos-ak-xaf1/t31.0-8/s720x720/414584_10150992843626055_876095252_o.jpg
p1459
sg4
V414584_10150992843626055_876095252_o.jpg
p1460
sa(dp1461
g2
Vhttps://fbcdn-sphotos-h-a.akamaihd.net/hphotos-ak-xfa1/t31.0-8/p180x540/411698_10150992843096055_1949403114_o.jpg
p1462
sg4
V411698_10150992843096055_1949403114_o.jpg
p1463
sa(dp1464
g2
Vhttps://fbcdn-sphotos-b-a.akamaihd.net/hphotos-ak-xfa1/t31.0-8/p180x540/463238_10150992842761055_1434988468_o.jpg
p1465
sg4
VWendel.jpg
p1466
sa(dp1467
g2
Vhttps://scontent-b.xx.fbcdn.net/hphotos-xfa1/t31.0-8/s720x720/411752_10150992842561055_1715638109_o.jpg
p1468
sg4
Vthe first village we visited.jpg
p1469
sa(dp1470
g2
Vhttps://scontent-a.xx.fbcdn.net/hphotos-xaf1/t31.0-8/s720x720/414323_10150992842186055_1804130989_o.jpg
p1471
sg4
Vkittens outside our hotel(this one is for Sonal).jpg
p1472
sa(dp1473
g2
Vhttps://scontent-a.xx.fbcdn.net/hphotos-xaf1/t31.0-8/s720x720/469337_10150932722236055_765500049_o.jpg
p1474
sg4
Vphoto booth fun.jpg
p1475
sa(dp1476
g2
Vhttps://scontent-a.xx.fbcdn.net/hphotos-xaf1/t31.0-8/s720x720/462471_10150821214551055_421415278_o.jpg
p1477
sg4
VBooth tooth smilez.jpg
p1478
sa(dp1479
g2
Vhttps://fbcdn-sphotos-b-a.akamaihd.net/hphotos-ak-xfa1/t31.0-8/s720x720/466341_10150821214436055_369303477_o.jpg
p1480
sg4
VI dont think I can make a pun here  Whoops.jpg
p1481
sa(dp1482
g2
Vhttps://fbcdn-sphotos-h-a.akamaihd.net/hphotos-ak-xfa1/t31.0-8/s720x720/460213_10150821214346055_959653102_o.jpg
p1483
sg4
Vno punny caption needed.jpg
p1484
sa(dp1485
g2
Vhttps://fbcdn-sphotos-d-a.akamaihd.net/hphotos-ak-xfa1/t31.0-8/s720x720/416740_10150821214256055_818216585_o.jpg
p1486
sg4
VIf you dont finish dont feel kiltie.jpg
p1487
sa(dp1488
g2
Vhttps://fbcdn-sphotos-a-a.akamaihd.net/hphotos-ak-xaf1/t31.0-8/p180x540/412163_10150821214176055_1476954760_o.jpg
p1489
sg4
VLou I mustache you a question  Dont shave this one fur later.jpg
p1490
sa(dp1491
g2
Vhttps://fbcdn-sphotos-g-a.akamaihd.net/hphotos-ak-xaf1/t31.0-8/p180x540/470566_10150821214051055_1595772322_o.jpg
p1492
sg4
VThen the weather got really warm all of a sudden.jpg
p1493
sa(dp1494
g2
Vhttps://scontent-b.xx.fbcdn.net/hphotos-xpf1/t31.0-8/s720x720/413477_10150821213926055_29551042_o.jpg
p1495
sg4
VPeople got really animated about this booth.jpg
p1496
sa(dp1497
g2
Vhttps://fbcdn-sphotos-c-a.akamaihd.net/hphotos-ak-xaf1/t31.0-8/s720x720/469569_10150821213716055_729754051_o.jpg
p1498
sg4
VThis is a hot picture.jpg
p1499
sa(dp1500
g2
Vhttps://fbcdn-sphotos-h-a.akamaihd.net/hphotos-ak-xpf1/t31.0-8/p180x540/458957_10150821213556055_2120935208_o.jpg
p1501
sg4
VNobody finishes Scot-free at CMU.jpg
p1502
sa(dp1503
g2
Vhttps://scontent-a.xx.fbcdn.net/hphotos-xaf1/t31.0-8/s720x720/477540_10150821213471055_1364832602_o.jpg
p1504
sg4
VSome of the acts just turned into a shipwreck  But this still managed to be a big hit.jpg
p1505
sa(dp1506
g2
Vhttps://scontent-a.xx.fbcdn.net/hphotos-xfp1/t31.0-8/s720x720/414429_10150821213311055_2000500106_o.jpg
p1507
sg4
VAny caption about this picture would be a waste.jpg
p1508
sa(dp1509
g2
Vhttps://scontent-b.xx.fbcdn.net/hphotos-xfa1/t31.0-8/p180x540/473191_10150821213186055_1402913496_o.jpg
p1510
sg4
VThis was relatively fun.jpg
p1511
sa(dp1512
g2
Vhttps://scontent-b.xx.fbcdn.net/hphotos-xfa1/t31.0-8/p180x540/473480_10150821213056055_333815079_o.jpg
p1513
sg4
VDouble exposure  Double buggy push power.jpg
p1514
sa(dp1515
g2
Vhttps://scontent-b.xx.fbcdn.net/hphotos-xfa1/t31.0-8/p180x540/470890_10150821212976055_760767030_o.jpg
p1516
sg4
VYou cant box in the CFA students creativity.jpg
p1517
sa(dp1518
g2
Vhttps://fbcdn-sphotos-e-a.akamaihd.net/hphotos-ak-xaf1/t31.0-8/p180x540/465904_10150821212891055_2117603147_o.jpg
p1519
sg4
VThis picture has good framing.jpg
p1520
sa(dp1521
g2
Vhttps://fbcdn-sphotos-f-a.akamaihd.net/hphotos-ak-xfa1/t31.0-8/p180x540/476972_10150821212776055_528796892_o.jpg
p1522
sg4
VNot a very passionate mosh pit for passionpit.jpg
p1523
sa(dp1524
g2
Vhttps://fbcdn-sphotos-d-a.akamaihd.net/hphotos-ak-xfa1/t31.0-8/p180x540/466152_10150821212691055_1133923942_o.jpg
p1525
sg4
VThe build up to carnival is so suspenseful.jpg
p1526
sa(dp1527
g2
Vhttps://scontent-b.xx.fbcdn.net/hphotos-xfa1/t31.0-8/p180x540/477344_10150821212621055_1926260342_o.jpg
p1528
sg4
VBuggy was wheely cool.jpg
p1529
sa(dp1530
g2
Vhttps://fbcdn-sphotos-c-a.akamaihd.net/hphotos-ak-xaf1/t31.0-8/p180x540/464530_10150821212531055_1225312916_o.jpg
p1531
sg4
VOn the fringe of completion.jpg
p1532
sa(dp1533
g2
Vhttps://scontent-a.xx.fbcdn.net/hphotos-xaf1/t31.0-8/s720x720/477747_10150821212401055_1791083009_o.jpg
p1534
sg4
VDont jump manAw nuts.jpg
p1535
sa(dp1536
g2
Vhttps://fbcdn-sphotos-d-a.akamaihd.net/hphotos-ak-xfa1/t31.0-8/s720x720/470751_10150821212321055_1414904960_o.jpg
p1537
sg4
VThe repeating 45-second Bill Nye theme song for 2 hours made us a bit loopy.jpg
p1538
sa(dp1539
g2
Vhttps://scontent-a.xx.fbcdn.net/hphotos-xaf1/t31.0-8/s720x720/470388_10150821212226055_199282120_o.jpg
p1540
sg4
VRiskee business  Oh gosh these puns are getting worse  Just roll with it.jpg
p1541
sa(dp1542
g2
Vhttps://fbcdn-sphotos-c-a.akamaihd.net/hphotos-ak-xaf1/t31.0-8/p180x540/411280_10150821212106055_959413433_o.jpg
p1543
sg4
VScreening fans.jpg
p1544
sa(dp1545
g2
Vhttps://fbcdn-sphotos-f-a.akamaihd.net/hphotos-ak-xfa1/t31.0-8/p180x540/472183_10150821211966055_1858592790_o.jpg
p1546
sg4
VMobot needed mo bots.jpg
p1547
sa(dp1548
g2
Vhttps://scontent-a.xx.fbcdn.net/hphotos-xaf1/t31.0-8/s720x720/462687_10150821211801055_208551101_o.jpg
p1549
sg4
VBooth always equates to a fun time.jpg
p1550
sa(dp1551
g2
Vhttps://fbcdn-sphotos-c-a.akamaihd.net/hphotos-ak-xaf1/t31.0-8/s720x720/411624_10150821211711055_1317654301_o.jpg
p1552
sg4
VThis picture just fits the Bill.jpg
p1553
sa(dp1554
g2
Vhttps://scontent-b.xx.fbcdn.net/hphotos-xfa1/t31.0-8/p180x540/412685_10150821211611055_1120699943_o.jpg
p1555
sg4
VWe only wear these hard hats to shield all our hard-earned Physics knowledge.jpg
p1556
sa(dp1557
g2
Vhttps://fbcdn-sphotos-b-a.akamaihd.net/hphotos-ak-xfa1/t31.0-8/p180x540/476392_10150821211356055_349502935_o.jpg
p1558
sg4
VCMU Carnival A cut above the rest.jpg
p1559
sa(dp1560
g2
Vhttps://scontent-a.xx.fbcdn.net/hphotos-xaf1/t31.0-8/s720x720/467322_10150821210651055_1607613897_o.jpg
p1561
sg4
VA flashy finish to a great first carnival.jpg
p1562
sa(dp1563
g2
Vhttps://fbcdn-sphotos-h-a.akamaihd.net/hphotos-ak-xpf1/v/t1.0-9/p180x540/560899_10150781105826055_659603900_n.jpg?oh=29253c0d40122c5817ec39e741589b49&oe=55950CA3&__gda__=1432852066_40d926c964fb57df5b9fc897786dffff
p1564
sg4
VA beautiful and metaphorically meaningful sunriseffff
p1565
sa(dp1566
g2
Vhttps://scontent-a.xx.fbcdn.net/hphotos-xaf1/t31.0-8/p180x540/474093_10150736500051055_1861965065_o.jpg
p1567
sg4
VIMG_1215.jpg
p1568
sa(dp1569
g2
Vhttps://fbcdn-sphotos-f-a.akamaihd.net/hphotos-ak-xpf1/t31.0-8/s720x720/414853_10150736499741055_239137466_o.jpg
p1570
sg4
VIMG_1053.jpg
p1571
sa(dp1572
g2
Vhttps://fbcdn-sphotos-c-a.akamaihd.net/hphotos-ak-xaf1/t31.0-8/p180x540/477893_10150736499301055_398758349_o.jpg
p1573
sg4
VIMG_1150.jpg
p1574
sa(dp1575
g2
Vhttps://fbcdn-sphotos-h-a.akamaihd.net/hphotos-ak-xfa1/t31.0-8/p180x540/456957_10150736498731055_170476997_o.jpg
p1576
sg4
VIMG_1105.jpg
p1577
sa(dp1578
g2
Vhttps://fbcdn-sphotos-h-a.akamaihd.net/hphotos-ak-xfa1/t31.0-8/p180x540/474832_10150736498466055_158870859_o.jpg
p1579
sg4
VIMG_1120.jpg
p1580
sa(dp1581
g2
Vhttps://scontent-a.xx.fbcdn.net/hphotos-xaf1/t31.0-8/p180x540/460842_10150736498281055_1703746923_o.jpg
p1582
sg4
VIMG_1071.jpg
p1583
sa(dp1584
g2
Vhttps://scontent-b.xx.fbcdn.net/hphotos-xfa1/t31.0-8/p180x540/416315_10150736498066055_728938952_o.jpg
p1585
sg4
VIMG_1081.jpg
p1586
sa(dp1587
g2
Vhttps://scontent-a.xx.fbcdn.net/hphotos-xaf1/t31.0-8/p180x540/415951_10150736497851055_1925603459_o.jpg
p1588
sg4
VIMG_1039.jpg
p1589
sa(dp1590
g2
Vhttps://scontent-b.xx.fbcdn.net/hphotos-xfa1/t31.0-8/p180x540/471528_10150736497586055_77155404_o.jpg
p1591
sg4
VIMG_1091.jpg
p1592
sa(dp1593
g2
Vhttps://fbcdn-sphotos-a-a.akamaihd.net/hphotos-ak-xaf1/t31.0-8/p180x540/412566_10150736497406055_821277923_o.jpg
p1594
sg4
VIMG_1300.jpg
p1595
sa(dp1596
g2
Vhttps://scontent-a.xx.fbcdn.net/hphotos-xaf1/t31.0-8/p180x540/468097_10150736497196055_1825114005_o.jpg
p1597
sg4
VIMG_1247.jpg
p1598
sa(dp1599
g2
Vhttps://fbcdn-sphotos-b-a.akamaihd.net/hphotos-ak-xfa1/t31.0-8/p180x540/456994_10150736496621055_1318140130_o.jpg
p1600
sg4
VIMG_1036.jpg
p1601
sa(dp1602
g2
Vhttps://fbcdn-sphotos-h-a.akamaihd.net/hphotos-ak-xfa1/t31.0-8/p180x540/478348_10150736496101055_1053351634_o.jpg
p1603
sg4
VIMG_1309.jpg
p1604
sa(dp1605
g2
Vhttps://fbcdn-sphotos-e-a.akamaihd.net/hphotos-ak-xaf1/t31.0-8/s720x720/462422_10150736495966055_1040124798_o.jpg
p1606
sg4
VIMG_1258.jpg
p1607
sa(dp1608
g2
Vhttps://fbcdn-sphotos-e-a.akamaihd.net/hphotos-ak-xaf1/t31.0-8/s720x720/476961_10150736495716055_1984201584_o.jpg
p1609
sg4
VIMG_1043.jpg
p1610
sa(dp1611
g2
Vhttps://scontent-b.xx.fbcdn.net/hphotos-xfa1/t31.0-8/p180x540/476899_10150736495591055_1367190021_o.jpg
p1612
sg4
VIMG_1225.jpg
p1613
sa(dp1614
g2
Vhttps://fbcdn-sphotos-f-a.akamaihd.net/hphotos-ak-xfa1/t31.0-8/p180x540/466508_10150736495206055_2075774970_o.jpg
p1615
sg4
VIMG_1038.jpg
p1616
sa(dp1617
g2
Vhttps://fbcdn-sphotos-b-a.akamaihd.net/hphotos-ak-xfa1/t31.0-8/s720x720/459435_10150736495046055_246775616_o.jpg
p1618
sg4
VIMG_1232.jpg
p1619
sa(dp1620
g2
Vhttps://scontent-a.xx.fbcdn.net/hphotos-xaf1/t31.0-8/s720x720/410875_10150736494831055_1907677430_o.jpg
p1621
sg4
VIMG_1160.jpg
p1622
sa(dp1623
g2
Vhttps://fbcdn-sphotos-f-a.akamaihd.net/hphotos-ak-xfa1/t31.0-8/p180x540/464650_10150736494651055_376408106_o.jpg
p1624
sg4
VIMG_1207.jpg
p1625
sa(dp1626
g2
Vhttps://scontent-a.xx.fbcdn.net/hphotos-xaf1/t31.0-8/p180x540/470333_10150736494421055_843792280_o.jpg
p1627
sg4
VIMG_1055.jpg
p1628
sa(dp1629
g2
Vhttps://fbcdn-sphotos-b-a.akamaihd.net/hphotos-ak-xfa1/t31.0-8/s720x720/411992_10150736494191055_1051848050_o.jpg
p1630
sg4
VIMG_1042.jpg
p1631
sa(dp1632
g2
Vhttps://fbcdn-sphotos-f-a.akamaihd.net/hphotos-ak-xpf1/t31.0-8/s720x720/414887_10150736493926055_1987530527_o.jpg
p1633
sg4
VIMG_1263.jpg
p1634
sa(dp1635
g2
Vhttps://scontent-a.xx.fbcdn.net/hphotos-xaf1/t31.0-8/s720x720/468283_10150736493691055_2000966594_o.jpg
p1636
sg4
VIMG_1156.jpg
p1637
sa(dp1638
g2
Vhttps://scontent-a.xx.fbcdn.net/hphotos-xaf1/t31.0-8/s720x720/475909_10150736493531055_1133613093_o.jpg
p1639
sg4
VIMG_1173.jpg
p1640
sa(dp1641
g2
Vhttps://fbcdn-sphotos-b-a.akamaihd.net/hphotos-ak-xpf1/t31.0-8/p180x540/460027_10150736493416055_547882041_o.jpg
p1642
sg4
VIMG_1056.jpg
p1643
sa(dp1644
g2
Vhttps://fbcdn-sphotos-c-a.akamaihd.net/hphotos-ak-xaf1/t31.0-8/s720x720/414093_10150736493276055_2090451079_o.jpg
p1645
sg4
VIMG_1235.jpg
p1646
sa(dp1647
g2
Vhttps://fbcdn-sphotos-b-a.akamaihd.net/hphotos-ak-xfa1/t31.0-8/p180x540/465776_10150736493161055_991240475_o.jpg
p1648
sg4
VIMG_1099.jpg
p1649
sa(dp1650
g2
Vhttps://scontent-b.xx.fbcdn.net/hphotos-xfa1/t31.0-8/s720x720/464268_10150736492946055_1627808038_o.jpg
p1651
sg4
VIMG_1193.jpg
p1652
sa(dp1653
g2
Vhttps://scontent-b.xx.fbcdn.net/hphotos-xfa1/t31.0-8/p180x540/479336_10150736492796055_1730734617_o.jpg
p1654
sg4
VIMG_1125.jpg
p1655
sa(dp1656
g2
Vhttps://scontent-a.xx.fbcdn.net/hphotos-xaf1/t31.0-8/p180x540/468413_10150736492441055_1963586758_o.jpg
p1657
sg4
VIMG_1117.jpg
p1658
sa(dp1659
g2
Vhttps://scontent-a.xx.fbcdn.net/hphotos-xfp1/t31.0-8/p180x540/474283_10150736492291055_756843241_o.jpg
p1660
sg4
VIMG_1217.jpg
p1661
sa(dp1662
g2
Vhttps://scontent-a.xx.fbcdn.net/hphotos-xaf1/t31.0-8/p180x540/468827_10150736492106055_1111636273_o.jpg
p1663
sg4
VIMG_1137.jpg
p1664
sa(dp1665
g2
Vhttps://scontent-b.xx.fbcdn.net/hphotos-xfa1/t31.0-8/p180x540/457223_10150736491961055_1734150860_o.jpg
p1666
sg4
VIMG_1074.jpg
p1667
sa(dp1668
g2
Vhttps://fbcdn-sphotos-h-a.akamaihd.net/hphotos-ak-xfa1/t31.0-8/p180x540/461913_10150736491506055_457270067_o.jpg
p1669
sg4
VIMG_1100.jpg
p1670
sa(dp1671
g2
Vhttps://scontent-a.xx.fbcdn.net/hphotos-xfp1/t31.0-8/p180x540/414905_10150736491101055_1939813974_o.jpg
p1672
sg4
VIMG_1162.jpg
p1673
sa(dp1674
g2
Vhttps://scontent-b.xx.fbcdn.net/hphotos-xfa1/t31.0-8/p180x540/412913_10150736490621055_1744232119_o.jpg
p1675
sg4
VIMG_1059.jpg
p1676
sa(dp1677
g2
Vhttps://scontent-a.xx.fbcdn.net/hphotos-xaf1/t31.0-8/s720x720/415014_10150736490361055_1170107018_o.jpg
p1678
sg4
VIMG_1144.jpg
p1679
sa(dp1680
g2
Vhttps://fbcdn-sphotos-e-a.akamaihd.net/hphotos-ak-xaf1/t31.0-8/s720x720/414125_10150736490031055_533819715_o.jpg
p1681
sg4
VIMG_1189.jpg
p1682
sa(dp1683
g2
Vhttps://scontent-b.xx.fbcdn.net/hphotos-xfa1/t31.0-8/p180x540/463509_10150736489836055_1862864100_o.jpg
p1684
sg4
VIMG_1179.jpg
p1685
sa(dp1686
g2
Vhttps://fbcdn-sphotos-b-a.akamaihd.net/hphotos-ak-xfa1/t31.0-8/p180x540/469944_10150736489271055_1415357365_o.jpg
p1687
sg4
VIMG_1068.jpg
p1688
sa(dp1689
g2
Vhttps://scontent-b.xx.fbcdn.net/hphotos-xfa1/t31.0-8/p180x540/471004_10150736489106055_179284834_o.jpg
p1690
sg4
VIMG_1070.jpg
p1691
sa(dp1692
g2
Vhttps://fbcdn-sphotos-d-a.akamaihd.net/hphotos-ak-xpf1/t31.0-8/p180x540/464653_10150736488996055_1393996700_o.jpg
p1693
sg4
VIMG_1246.jpg
p1694
sa(dp1695
g2
Vhttps://scontent-a.xx.fbcdn.net/hphotos-xfp1/t31.0-8/s720x720/413499_10150736488101055_270845259_o.jpg
p1696
sg4
VIMG_1220.jpg
p1697
sa(dp1698
g2
Vhttps://fbcdn-sphotos-e-a.akamaihd.net/hphotos-ak-xaf1/t31.0-8/s720x720/456429_10150736487886055_860775476_o.jpg
p1699
sg4
VIMG_1238.jpg
p1700
sa(dp1701
g2
Vhttps://scontent-b.xx.fbcdn.net/hphotos-xfa1/t31.0-8/s720x720/415180_10150736487726055_1841363507_o.jpg
p1702
sg4
VIMG_1046.jpg
p1703
sa(dp1704
g2
Vhttps://scontent-a.xx.fbcdn.net/hphotos-xaf1/t31.0-8/p180x540/471921_10150736487526055_1290343188_o.jpg
p1705
sg4
VIMG_1181.jpg
p1706
sa(dp1707
g2
Vhttps://fbcdn-sphotos-f-a.akamaihd.net/hphotos-ak-xfa1/t31.0-8/p180x540/460583_10150736487366055_1147334831_o.jpg
p1708
sg4
VIMG_1127.jpg
p1709
sa(dp1710
g2
Vhttps://fbcdn-sphotos-f-a.akamaihd.net/hphotos-ak-xfa1/t31.0-8/p180x540/461598_10150736486851055_1289584889_o.jpg
p1711
sg4
VIMG_1048.jpg
p1712
sa(dp1713
g2
Vhttps://fbcdn-sphotos-g-a.akamaihd.net/hphotos-ak-xaf1/t31.0-8/p180x540/459308_10150736486571055_907457630_o.jpg
p1714
sg4
VIMG_1064.jpg
p1715
sa(dp1716
g2
Vhttps://scontent-b.xx.fbcdn.net/hphotos-xpf1/t31.0-8/s720x720/466201_10150736486001055_1226347652_o.jpg
p1717
sg4
VIMG_1253.jpg
p1718
sa(dp1719
g2
Vhttps://scontent-b.xx.fbcdn.net/hphotos-xfa1/t31.0-8/p180x540/412198_10150736485771055_473580298_o.jpg
p1720
sg4
VIMG_1080.jpg
p1721
sa(dp1722
g2
Vhttps://scontent-a.xx.fbcdn.net/hphotos-xaf1/t31.0-8/p180x540/461698_10150736485571055_319795826_o.jpg
p1723
sg4
VIMG_1213.jpg
p1724
sa(dp1725
g2
Vhttps://scontent-b.xx.fbcdn.net/hphotos-xpf1/t31.0-8/p180x540/469804_10150736485391055_814244383_o.jpg
p1726
sg4
VIMG_1242.jpg
p1727
sa(dp1728
g2
Vhttps://fbcdn-sphotos-e-a.akamaihd.net/hphotos-ak-xaf1/t31.0-8/p180x540/470314_10150736485231055_1939555778_o.jpg
p1729
sg4
VIMG_1066.jpg
p1730
sa(dp1731
g2
Vhttps://scontent-a.xx.fbcdn.net/hphotos-xaf1/t31.0-8/p180x540/460498_10150736484831055_1648175205_o.jpg
p1732
sg4
VIMG_1085.jpg
p1733
sa(dp1734
g2
Vhttps://scontent-b.xx.fbcdn.net/hphotos-xfa1/t31.0-8/p180x540/411636_10150736484561055_1417711060_o.jpg
p1735
sg4
VIMG_1154.jpg
p1736
sa(dp1737
g2
Vhttps://fbcdn-sphotos-a-a.akamaihd.net/hphotos-ak-xaf1/t31.0-8/p180x540/471350_10150736484281055_1009469858_o.jpg
p1738
sg4
VIMG_1129.jpg
p1739
sa(dp1740
g2
Vhttps://fbcdn-sphotos-h-a.akamaihd.net/hphotos-ak-xfa1/t31.0-8/s720x720/461321_10150736483271055_1612594836_o.jpg
p1741
sg4
VIMG_1204.jpg
p1742
sa(dp1743
g2
Vhttps://fbcdn-sphotos-e-a.akamaihd.net/hphotos-ak-xaf1/v/t1.0-9/416844_10150732437491055_1510841592_n.jpg?oh=d2ae0b7580fa9cfcce17842e20f43495&oe=55955804&__gda__=1431453583_21915e2b191252ca5585ab1efaac84c1
p1744
sg4
VThe result of asking Mulan how can I be a man84c1
p1745
sa(dp1746
g2
Vhttps://fbcdn-sphotos-b-a.akamaihd.net/hphotos-ak-xfa1/v/t1.0-9/387212_10150525401251055_1874570754_n.jpg?oh=b73d98433120169de2448bbce37998c2&oe=55563A5A&__gda__=1435937877_60ead9d23de7c76bee28257bd0aa5976
p1747
sg4
V387212_10150525401251055_1874570754_n.jpg?oh=b73d98433120169de2448bbce37998c2&oe=55563A5A&__gda__=1435937877_60ead9d23de7c76bee28257bd0aa5976
p1748
sa(dp1749
g2
Vhttps://fbcdn-sphotos-h-a.akamaihd.net/hphotos-ak-xfa1/v/t1.0-9/s720x720/391002_10150488308746055_212104816_n.jpg?oh=622bc5503c06428a28f1cbc29b9fc8a4&oe=55481322&__gda__=1432179058_8e7c146750f052f1db1965831cedc8ab
p1750
sg4
V391002_10150488308746055_212104816_n.jpg?oh=622bc5503c06428a28f1cbc29b9fc8a4&oe=55481322&__gda__=1432179058_8e7c146750f052f1db1965831cedc8ab
p1751
sa(dp1752
g2
Vhttps://scontent-a.xx.fbcdn.net/hphotos-xfp1/t31.0-8/s720x720/340011_10150451377641055_194457589_o.jpg
p1753
sg4
VSokka halloween costume.jpg
p1754
sa(dp1755
g2
Vhttps://scontent-a.xx.fbcdn.net/hphotos-xaf1/v/t1.0-9/305485_10150429541946055_1082796202_n.jpg?oh=4140904981eab8e1de4edefd3535a2b6&oe=5559E056
p1756
sg4
VOn the way to class found pi in the skyPUN IRL FTWE056
p1757
sa(dp1758
g2
Vhttps://fbcdn-sphotos-d-a.akamaihd.net/hphotos-ak-xfa1/t31.0-8/s720x720/289759_10150400539741055_441963737_o.jpg
p1759
sg4
VYay for C3 randomness.jpg
p1760
sa(dp1761
g2
Vhttps://scontent-b.xx.fbcdn.net/hphotos-xpf1/v/t1.0-9/s720x720/297875_10150383088176055_623805515_n.jpg?oh=b98af292294aead1bbe1f1eaea0fd4e6&oe=554C52C6
p1762
sg4
V297875_10150383088176055_623805515_n.jpg?oh=b98af292294aead1bbe1f1eaea0fd4e6&oe=554C52C6
p1763
sa(dp1764
g2
Vhttps://fbcdn-sphotos-b-a.akamaihd.net/hphotos-ak-frc3/t31.0-8/p180x540/338202_10150374179016055_1661797661_o.jpg
p1765
sg4
VRUFFLES HAVE RIDGES.jpg
p1766
sa(dp1767
g2
Vhttps://fbcdn-sphotos-h-a.akamaihd.net/hphotos-ak-xfa1/v/t1.0-9/308503_10150354292771055_3913908_n.jpg?oh=0579e086bdec8811e702f11a8dafd95a&oe=55671D42&__gda__=1435844604_40f295161942db3ea09d29de3593b98d
p1768
sg4
VDISTURBINGb98d
p1769
sa(dp1770
g2
Vhttps://fbcdn-sphotos-c-a.akamaihd.net/hphotos-ak-xfp1/v/t1.0-9/316866_10150354292751055_5012107_n.jpg?oh=33f8adecbe348108f6b6fb1bad7aae52&oe=55615519&__gda__=1435653131_79207a7365dd9e7ca733bb721db808f8
p1771
sg4
V316866_10150354292751055_5012107_n.jpg?oh=33f8adecbe348108f6b6fb1bad7aae52&oe=55615519&__gda__=1435653131_79207a7365dd9e7ca733bb721db808f8
p1772
sa(dp1773
g2
Vhttps://scontent-a.xx.fbcdn.net/hphotos-xap1/v/t1.0-9/308661_10150354292711055_4958679_n.jpg?oh=d4d0d565c489f45d8026ae127e17349c&oe=55595D4B
p1774
sg4
V308661_10150354292711055_4958679_n.jpg?oh=d4d0d565c489f45d8026ae127e17349c&oe=55595D4B
p1775
sa(dp1776
g2
Vhttps://scontent-b.xx.fbcdn.net/hphotos-xfa1/v/t1.0-9/307162_10150354292681055_2641618_n.jpg?oh=e981fea9643f47e3999149c400deaca7&oe=5561C4AC
p1777
sg4
V307162_10150354292681055_2641618_n.jpg?oh=e981fea9643f47e3999149c400deaca7&oe=5561C4AC
p1778
sa(dp1779
g2
Vhttps://fbcdn-sphotos-d-a.akamaihd.net/hphotos-ak-xfa1/v/t1.0-9/293219_10150354292621055_769240_n.jpg?oh=e000a461930d2dbfea10ff1c71047bd2&oe=554CD479&__gda__=1430979504_ee0fb6ee066c2754a16e92053243035f
p1780
sg4
V293219_10150354292621055_769240_n.jpg?oh=e000a461930d2dbfea10ff1c71047bd2&oe=554CD479&__gda__=1430979504_ee0fb6ee066c2754a16e92053243035f
p1781
sa(dp1782
g2
Vhttps://scontent-b.xx.fbcdn.net/hphotos-xfa1/v/t1.0-9/301319_10150354292526055_945367_n.jpg?oh=d845513738f2f37e953daed1b3eea6d8&oe=5565D439
p1783
sg4
V301319_10150354292526055_945367_n.jpg?oh=d845513738f2f37e953daed1b3eea6d8&oe=5565D439
p1784
sa(dp1785
g2
Vhttps://fbcdn-sphotos-e-a.akamaihd.net/hphotos-ak-xaf1/v/t1.0-9/304896_10150354292496055_2981830_n.jpg?oh=70219af215cd7f76cdeb0ba1a6eb513b&oe=555E3EAE&__gda__=1432843647_ad30262cd296ffdd1574617ca854fbec
p1786
sg4
V304896_10150354292496055_2981830_n.jpg?oh=70219af215cd7f76cdeb0ba1a6eb513b&oe=555E3EAE&__gda__=1432843647_ad30262cd296ffdd1574617ca854fbec
p1787
sa(dp1788
g2
Vhttps://scontent-a.xx.fbcdn.net/hphotos-xfp1/v/t1.0-9/313006_10150354292421055_2669386_n.jpg?oh=e2c7a7433c812ea9bd91e92e4634b624&oe=555CEC60
p1789
sg4
V313006_10150354292421055_2669386_n.jpg?oh=e2c7a7433c812ea9bd91e92e4634b624&oe=555CEC60
p1790
sa(dp1791
g2
Vhttps://scontent-a.xx.fbcdn.net/hphotos-xfp1/v/t1.0-9/297085_10150354292391055_8334702_n.jpg?oh=1e0bb59a47b3d3a92cad929ff5ec36c1&oe=55692E5E
p1792
sg4
V297085_10150354292391055_8334702_n.jpg?oh=1e0bb59a47b3d3a92cad929ff5ec36c1&oe=55692E5E
p1793
sa(dp1794
g2
Vhttps://scontent-a.xx.fbcdn.net/hphotos-xaf1/v/t1.0-9/313732_10150354292341055_3620802_n.jpg?oh=486416c09e5c962c2a653e569f5fbb5f&oe=555C507B
p1795
sg4
V313732_10150354292341055_3620802_n.jpg?oh=486416c09e5c962c2a653e569f5fbb5f&oe=555C507B
p1796
sa(dp1797
g2
Vhttps://scontent-b.xx.fbcdn.net/hphotos-xfa1/v/t1.0-9/320119_10150354292271055_5973062_n.jpg?oh=9d948de8b03ce42270c13ba6db550250&oe=5594DBAB
p1798
sg4
V320119_10150354292271055_5973062_n.jpg?oh=9d948de8b03ce42270c13ba6db550250&oe=5594DBAB
p1799
sa(dp1800
g2
Vhttps://scontent-b.xx.fbcdn.net/hphotos-xpf1/v/t1.0-9/293154_10150354292226055_7940877_n.jpg?oh=58416825192b4f472f601651ddb18e70&oe=555B4721
p1801
sg4
Vmattress factory4721
p1802
sa.